Archive member included to satisfy reference by file (symbol)

/home/abhishek/udoo/udoo-neo_custom_linux/m4/gcc-arm-none-eabi-7-2018-q2-update-linux/gcc-arm-none-eabi-7-2018-q2-update/bin/../lib/gcc/arm-none-eabi/7.3.1/../../../../arm-none-eabi/lib/thumb/v7e-m/fpv4-sp/hard/libc_nano.a(lib_a-assert.o)
                              CMakeFiles/rpmsg_pingpong_freertos_example.dir/home/abhishek/udoo/udoo-neo_custom_linux/m4/FreeRTOS_BSP_1.0.1_iMX6SX/examples/imx6sx_sdb_m4/demo_apps/rpmsg/pingpong_freertos/pingpong_freertos.c.obj (__assert_func)
/home/abhishek/udoo/udoo-neo_custom_linux/m4/gcc-arm-none-eabi-7-2018-q2-update-linux/gcc-arm-none-eabi-7-2018-q2-update/bin/../lib/gcc/arm-none-eabi/7.3.1/../../../../arm-none-eabi/lib/thumb/v7e-m/fpv4-sp/hard/libc_nano.a(lib_a-exit.o)
                              /home/abhishek/udoo/udoo-neo_custom_linux/m4/gcc-arm-none-eabi-7-2018-q2-update-linux/gcc-arm-none-eabi-7-2018-q2-update/bin/../lib/gcc/arm-none-eabi/7.3.1/../../../../arm-none-eabi/lib/thumb/v7e-m/fpv4-sp/hard/crt0.o (exit)
/home/abhishek/udoo/udoo-neo_custom_linux/m4/gcc-arm-none-eabi-7-2018-q2-update-linux/gcc-arm-none-eabi-7-2018-q2-update/bin/../lib/gcc/arm-none-eabi/7.3.1/../../../../arm-none-eabi/lib/thumb/v7e-m/fpv4-sp/hard/libc_nano.a(lib_a-fprintf.o)
                              /home/abhishek/udoo/udoo-neo_custom_linux/m4/gcc-arm-none-eabi-7-2018-q2-update-linux/gcc-arm-none-eabi-7-2018-q2-update/bin/../lib/gcc/arm-none-eabi/7.3.1/../../../../arm-none-eabi/lib/thumb/v7e-m/fpv4-sp/hard/libc_nano.a(lib_a-assert.o) (fiprintf)
/home/abhishek/udoo/udoo-neo_custom_linux/m4/gcc-arm-none-eabi-7-2018-q2-update-linux/gcc-arm-none-eabi-7-2018-q2-update/bin/../lib/gcc/arm-none-eabi/7.3.1/../../../../arm-none-eabi/lib/thumb/v7e-m/fpv4-sp/hard/libc_nano.a(lib_a-impure.o)
                              /home/abhishek/udoo/udoo-neo_custom_linux/m4/gcc-arm-none-eabi-7-2018-q2-update-linux/gcc-arm-none-eabi-7-2018-q2-update/bin/../lib/gcc/arm-none-eabi/7.3.1/../../../../arm-none-eabi/lib/thumb/v7e-m/fpv4-sp/hard/libc_nano.a(lib_a-exit.o) (_global_impure_ptr)
/home/abhishek/udoo/udoo-neo_custom_linux/m4/gcc-arm-none-eabi-7-2018-q2-update-linux/gcc-arm-none-eabi-7-2018-q2-update/bin/../lib/gcc/arm-none-eabi/7.3.1/../../../../arm-none-eabi/lib/thumb/v7e-m/fpv4-sp/hard/libc_nano.a(lib_a-init.o)
                              /home/abhishek/udoo/udoo-neo_custom_linux/m4/gcc-arm-none-eabi-7-2018-q2-update-linux/gcc-arm-none-eabi-7-2018-q2-update/bin/../lib/gcc/arm-none-eabi/7.3.1/../../../../arm-none-eabi/lib/thumb/v7e-m/fpv4-sp/hard/crt0.o (__libc_init_array)
/home/abhishek/udoo/udoo-neo_custom_linux/m4/gcc-arm-none-eabi-7-2018-q2-update-linux/gcc-arm-none-eabi-7-2018-q2-update/bin/../lib/gcc/arm-none-eabi/7.3.1/../../../../arm-none-eabi/lib/thumb/v7e-m/fpv4-sp/hard/libc_nano.a(lib_a-memcpy-stub.o)
                              CMakeFiles/rpmsg_pingpong_freertos_example.dir/home/abhishek/udoo/udoo-neo_custom_linux/m4/FreeRTOS_BSP_1.0.1_iMX6SX/middleware/multicore/open-amp/rpmsg/rpmsg_rtos.c.obj (memcpy)
/home/abhishek/udoo/udoo-neo_custom_linux/m4/gcc-arm-none-eabi-7-2018-q2-update-linux/gcc-arm-none-eabi-7-2018-q2-update/bin/../lib/gcc/arm-none-eabi/7.3.1/../../../../arm-none-eabi/lib/thumb/v7e-m/fpv4-sp/hard/libc_nano.a(lib_a-memset.o)
                              /home/abhishek/udoo/udoo-neo_custom_linux/m4/gcc-arm-none-eabi-7-2018-q2-update-linux/gcc-arm-none-eabi-7-2018-q2-update/bin/../lib/gcc/arm-none-eabi/7.3.1/../../../../arm-none-eabi/lib/thumb/v7e-m/fpv4-sp/hard/crt0.o (memset)
/home/abhishek/udoo/udoo-neo_custom_linux/m4/gcc-arm-none-eabi-7-2018-q2-update-linux/gcc-arm-none-eabi-7-2018-q2-update/bin/../lib/gcc/arm-none-eabi/7.3.1/../../../../arm-none-eabi/lib/thumb/v7e-m/fpv4-sp/hard/libc_nano.a(lib_a-nano-vfprintf.o)
                              /home/abhishek/udoo/udoo-neo_custom_linux/m4/gcc-arm-none-eabi-7-2018-q2-update-linux/gcc-arm-none-eabi-7-2018-q2-update/bin/../lib/gcc/arm-none-eabi/7.3.1/../../../../arm-none-eabi/lib/thumb/v7e-m/fpv4-sp/hard/libc_nano.a(lib_a-fprintf.o) (_vfprintf_r)
/home/abhishek/udoo/udoo-neo_custom_linux/m4/gcc-arm-none-eabi-7-2018-q2-update-linux/gcc-arm-none-eabi-7-2018-q2-update/bin/../lib/gcc/arm-none-eabi/7.3.1/../../../../arm-none-eabi/lib/thumb/v7e-m/fpv4-sp/hard/libc_nano.a(lib_a-nano-vfprintf_i.o)
                              /home/abhishek/udoo/udoo-neo_custom_linux/m4/gcc-arm-none-eabi-7-2018-q2-update-linux/gcc-arm-none-eabi-7-2018-q2-update/bin/../lib/gcc/arm-none-eabi/7.3.1/../../../../arm-none-eabi/lib/thumb/v7e-m/fpv4-sp/hard/libc_nano.a(lib_a-nano-vfprintf.o) (_printf_i)
/home/abhishek/udoo/udoo-neo_custom_linux/m4/gcc-arm-none-eabi-7-2018-q2-update-linux/gcc-arm-none-eabi-7-2018-q2-update/bin/../lib/gcc/arm-none-eabi/7.3.1/../../../../arm-none-eabi/lib/thumb/v7e-m/fpv4-sp/hard/libc_nano.a(lib_a-strcmp.o)
                              CMakeFiles/rpmsg_pingpong_freertos_example.dir/home/abhishek/udoo/udoo-neo_custom_linux/m4/FreeRTOS_BSP_1.0.1_iMX6SX/middleware/multicore/open-amp/porting/env/freertos/rpmsg_porting.c.obj (strcmp)
/home/abhishek/udoo/udoo-neo_custom_linux/m4/gcc-arm-none-eabi-7-2018-q2-update-linux/gcc-arm-none-eabi-7-2018-q2-update/bin/../lib/gcc/arm-none-eabi/7.3.1/../../../../arm-none-eabi/lib/thumb/v7e-m/fpv4-sp/hard/libc_nano.a(lib_a-strlen.o)
                              CMakeFiles/rpmsg_pingpong_freertos_example.dir/home/abhishek/udoo/udoo-neo_custom_linux/m4/FreeRTOS_BSP_1.0.1_iMX6SX/platform/utilities/src/print_scan.c.obj (strlen)
/home/abhishek/udoo/udoo-neo_custom_linux/m4/gcc-arm-none-eabi-7-2018-q2-update-linux/gcc-arm-none-eabi-7-2018-q2-update/bin/../lib/gcc/arm-none-eabi/7.3.1/../../../../arm-none-eabi/lib/thumb/v7e-m/fpv4-sp/hard/libc_nano.a(lib_a-strncmp.o)
                              CMakeFiles/rpmsg_pingpong_freertos_example.dir/home/abhishek/udoo/udoo-neo_custom_linux/m4/FreeRTOS_BSP_1.0.1_iMX6SX/middleware/multicore/open-amp/porting/env/freertos/rpmsg_porting.c.obj (strncmp)
/home/abhishek/udoo/udoo-neo_custom_linux/m4/gcc-arm-none-eabi-7-2018-q2-update-linux/gcc-arm-none-eabi-7-2018-q2-update/bin/../lib/gcc/arm-none-eabi/7.3.1/../../../../arm-none-eabi/lib/thumb/v7e-m/fpv4-sp/hard/libc_nano.a(lib_a-strncpy.o)
                              CMakeFiles/rpmsg_pingpong_freertos_example.dir/home/abhishek/udoo/udoo-neo_custom_linux/m4/FreeRTOS_BSP_1.0.1_iMX6SX/middleware/multicore/open-amp/porting/env/freertos/rpmsg_porting.c.obj (strncpy)
/home/abhishek/udoo/udoo-neo_custom_linux/m4/gcc-arm-none-eabi-7-2018-q2-update-linux/gcc-arm-none-eabi-7-2018-q2-update/bin/../lib/gcc/arm-none-eabi/7.3.1/../../../../arm-none-eabi/lib/thumb/v7e-m/fpv4-sp/hard/libc_nano.a(lib_a-wbuf.o)
                              /home/abhishek/udoo/udoo-neo_custom_linux/m4/gcc-arm-none-eabi-7-2018-q2-update-linux/gcc-arm-none-eabi-7-2018-q2-update/bin/../lib/gcc/arm-none-eabi/7.3.1/../../../../arm-none-eabi/lib/thumb/v7e-m/fpv4-sp/hard/libc_nano.a(lib_a-nano-vfprintf.o) (__swbuf_r)
/home/abhishek/udoo/udoo-neo_custom_linux/m4/gcc-arm-none-eabi-7-2018-q2-update-linux/gcc-arm-none-eabi-7-2018-q2-update/bin/../lib/gcc/arm-none-eabi/7.3.1/../../../../arm-none-eabi/lib/thumb/v7e-m/fpv4-sp/hard/libc_nano.a(lib_a-wsetup.o)
                              /home/abhishek/udoo/udoo-neo_custom_linux/m4/gcc-arm-none-eabi-7-2018-q2-update-linux/gcc-arm-none-eabi-7-2018-q2-update/bin/../lib/gcc/arm-none-eabi/7.3.1/../../../../arm-none-eabi/lib/thumb/v7e-m/fpv4-sp/hard/libc_nano.a(lib_a-nano-vfprintf.o) (__swsetup_r)
/home/abhishek/udoo/udoo-neo_custom_linux/m4/gcc-arm-none-eabi-7-2018-q2-update-linux/gcc-arm-none-eabi-7-2018-q2-update/bin/../lib/gcc/arm-none-eabi/7.3.1/../../../../arm-none-eabi/lib/thumb/v7e-m/fpv4-sp/hard/libc_nano.a(lib_a-abort.o)
                              /home/abhishek/udoo/udoo-neo_custom_linux/m4/gcc-arm-none-eabi-7-2018-q2-update-linux/gcc-arm-none-eabi-7-2018-q2-update/bin/../lib/gcc/arm-none-eabi/7.3.1/../../../../arm-none-eabi/lib/thumb/v7e-m/fpv4-sp/hard/libc_nano.a(lib_a-assert.o) (abort)
/home/abhishek/udoo/udoo-neo_custom_linux/m4/gcc-arm-none-eabi-7-2018-q2-update-linux/gcc-arm-none-eabi-7-2018-q2-update/bin/../lib/gcc/arm-none-eabi/7.3.1/../../../../arm-none-eabi/lib/thumb/v7e-m/fpv4-sp/hard/libc_nano.a(lib_a-fflush.o)
                              /home/abhishek/udoo/udoo-neo_custom_linux/m4/gcc-arm-none-eabi-7-2018-q2-update-linux/gcc-arm-none-eabi-7-2018-q2-update/bin/../lib/gcc/arm-none-eabi/7.3.1/../../../../arm-none-eabi/lib/thumb/v7e-m/fpv4-sp/hard/libc_nano.a(lib_a-wbuf.o) (_fflush_r)
/home/abhishek/udoo/udoo-neo_custom_linux/m4/gcc-arm-none-eabi-7-2018-q2-update-linux/gcc-arm-none-eabi-7-2018-q2-update/bin/../lib/gcc/arm-none-eabi/7.3.1/../../../../arm-none-eabi/lib/thumb/v7e-m/fpv4-sp/hard/libc_nano.a(lib_a-findfp.o)
                              /home/abhishek/udoo/udoo-neo_custom_linux/m4/gcc-arm-none-eabi-7-2018-q2-update-linux/gcc-arm-none-eabi-7-2018-q2-update/bin/../lib/gcc/arm-none-eabi/7.3.1/../../../../arm-none-eabi/lib/thumb/v7e-m/fpv4-sp/hard/libc_nano.a(lib_a-nano-vfprintf.o) (__sinit)
/home/abhishek/udoo/udoo-neo_custom_linux/m4/gcc-arm-none-eabi-7-2018-q2-update-linux/gcc-arm-none-eabi-7-2018-q2-update/bin/../lib/gcc/arm-none-eabi/7.3.1/../../../../arm-none-eabi/lib/thumb/v7e-m/fpv4-sp/hard/libc_nano.a(lib_a-fvwrite.o)
                              /home/abhishek/udoo/udoo-neo_custom_linux/m4/gcc-arm-none-eabi-7-2018-q2-update-linux/gcc-arm-none-eabi-7-2018-q2-update/bin/../lib/gcc/arm-none-eabi/7.3.1/../../../../arm-none-eabi/lib/thumb/v7e-m/fpv4-sp/hard/libc_nano.a(lib_a-nano-vfprintf.o) (__sfvwrite_r)
/home/abhishek/udoo/udoo-neo_custom_linux/m4/gcc-arm-none-eabi-7-2018-q2-update-linux/gcc-arm-none-eabi-7-2018-q2-update/bin/../lib/gcc/arm-none-eabi/7.3.1/../../../../arm-none-eabi/lib/thumb/v7e-m/fpv4-sp/hard/libc_nano.a(lib_a-fwalk.o)
                              /home/abhishek/udoo/udoo-neo_custom_linux/m4/gcc-arm-none-eabi-7-2018-q2-update-linux/gcc-arm-none-eabi-7-2018-q2-update/bin/../lib/gcc/arm-none-eabi/7.3.1/../../../../arm-none-eabi/lib/thumb/v7e-m/fpv4-sp/hard/libc_nano.a(lib_a-findfp.o) (_fwalk)
/home/abhishek/udoo/udoo-neo_custom_linux/m4/gcc-arm-none-eabi-7-2018-q2-update-linux/gcc-arm-none-eabi-7-2018-q2-update/bin/../lib/gcc/arm-none-eabi/7.3.1/../../../../arm-none-eabi/lib/thumb/v7e-m/fpv4-sp/hard/libc_nano.a(lib_a-makebuf.o)
                              /home/abhishek/udoo/udoo-neo_custom_linux/m4/gcc-arm-none-eabi-7-2018-q2-update-linux/gcc-arm-none-eabi-7-2018-q2-update/bin/../lib/gcc/arm-none-eabi/7.3.1/../../../../arm-none-eabi/lib/thumb/v7e-m/fpv4-sp/hard/libc_nano.a(lib_a-wsetup.o) (__smakebuf_r)
/home/abhishek/udoo/udoo-neo_custom_linux/m4/gcc-arm-none-eabi-7-2018-q2-update-linux/gcc-arm-none-eabi-7-2018-q2-update/bin/../lib/gcc/arm-none-eabi/7.3.1/../../../../arm-none-eabi/lib/thumb/v7e-m/fpv4-sp/hard/libc_nano.a(lib_a-memchr.o)
                              /home/abhishek/udoo/udoo-neo_custom_linux/m4/gcc-arm-none-eabi-7-2018-q2-update-linux/gcc-arm-none-eabi-7-2018-q2-update/bin/../lib/gcc/arm-none-eabi/7.3.1/../../../../arm-none-eabi/lib/thumb/v7e-m/fpv4-sp/hard/libc_nano.a(lib_a-nano-vfprintf.o) (memchr)
/home/abhishek/udoo/udoo-neo_custom_linux/m4/gcc-arm-none-eabi-7-2018-q2-update-linux/gcc-arm-none-eabi-7-2018-q2-update/bin/../lib/gcc/arm-none-eabi/7.3.1/../../../../arm-none-eabi/lib/thumb/v7e-m/fpv4-sp/hard/libc_nano.a(lib_a-memmove.o)
                              /home/abhishek/udoo/udoo-neo_custom_linux/m4/gcc-arm-none-eabi-7-2018-q2-update-linux/gcc-arm-none-eabi-7-2018-q2-update/bin/../lib/gcc/arm-none-eabi/7.3.1/../../../../arm-none-eabi/lib/thumb/v7e-m/fpv4-sp/hard/libc_nano.a(lib_a-fvwrite.o) (memmove)
/home/abhishek/udoo/udoo-neo_custom_linux/m4/gcc-arm-none-eabi-7-2018-q2-update-linux/gcc-arm-none-eabi-7-2018-q2-update/bin/../lib/gcc/arm-none-eabi/7.3.1/../../../../arm-none-eabi/lib/thumb/v7e-m/fpv4-sp/hard/libc_nano.a(lib_a-nano-freer.o)
                              /home/abhishek/udoo/udoo-neo_custom_linux/m4/gcc-arm-none-eabi-7-2018-q2-update-linux/gcc-arm-none-eabi-7-2018-q2-update/bin/../lib/gcc/arm-none-eabi/7.3.1/../../../../arm-none-eabi/lib/thumb/v7e-m/fpv4-sp/hard/libc_nano.a(lib_a-wsetup.o) (_free_r)
/home/abhishek/udoo/udoo-neo_custom_linux/m4/gcc-arm-none-eabi-7-2018-q2-update-linux/gcc-arm-none-eabi-7-2018-q2-update/bin/../lib/gcc/arm-none-eabi/7.3.1/../../../../arm-none-eabi/lib/thumb/v7e-m/fpv4-sp/hard/libc_nano.a(lib_a-nano-mallocr.o)
                              /home/abhishek/udoo/udoo-neo_custom_linux/m4/gcc-arm-none-eabi-7-2018-q2-update-linux/gcc-arm-none-eabi-7-2018-q2-update/bin/../lib/gcc/arm-none-eabi/7.3.1/../../../../arm-none-eabi/lib/thumb/v7e-m/fpv4-sp/hard/libc_nano.a(lib_a-findfp.o) (_malloc_r)
/home/abhishek/udoo/udoo-neo_custom_linux/m4/gcc-arm-none-eabi-7-2018-q2-update-linux/gcc-arm-none-eabi-7-2018-q2-update/bin/../lib/gcc/arm-none-eabi/7.3.1/../../../../arm-none-eabi/lib/thumb/v7e-m/fpv4-sp/hard/libc_nano.a(lib_a-nano-reallocr.o)
                              /home/abhishek/udoo/udoo-neo_custom_linux/m4/gcc-arm-none-eabi-7-2018-q2-update-linux/gcc-arm-none-eabi-7-2018-q2-update/bin/../lib/gcc/arm-none-eabi/7.3.1/../../../../arm-none-eabi/lib/thumb/v7e-m/fpv4-sp/hard/libc_nano.a(lib_a-fvwrite.o) (_realloc_r)
/home/abhishek/udoo/udoo-neo_custom_linux/m4/gcc-arm-none-eabi-7-2018-q2-update-linux/gcc-arm-none-eabi-7-2018-q2-update/bin/../lib/gcc/arm-none-eabi/7.3.1/../../../../arm-none-eabi/lib/thumb/v7e-m/fpv4-sp/hard/libc_nano.a(lib_a-sbrkr.o)
                              /home/abhishek/udoo/udoo-neo_custom_linux/m4/gcc-arm-none-eabi-7-2018-q2-update-linux/gcc-arm-none-eabi-7-2018-q2-update/bin/../lib/gcc/arm-none-eabi/7.3.1/../../../../arm-none-eabi/lib/thumb/v7e-m/fpv4-sp/hard/libc_nano.a(lib_a-nano-mallocr.o) (_sbrk_r)
/home/abhishek/udoo/udoo-neo_custom_linux/m4/gcc-arm-none-eabi-7-2018-q2-update-linux/gcc-arm-none-eabi-7-2018-q2-update/bin/../lib/gcc/arm-none-eabi/7.3.1/../../../../arm-none-eabi/lib/thumb/v7e-m/fpv4-sp/hard/libc_nano.a(lib_a-signal.o)
                              /home/abhishek/udoo/udoo-neo_custom_linux/m4/gcc-arm-none-eabi-7-2018-q2-update-linux/gcc-arm-none-eabi-7-2018-q2-update/bin/../lib/gcc/arm-none-eabi/7.3.1/../../../../arm-none-eabi/lib/thumb/v7e-m/fpv4-sp/hard/libc_nano.a(lib_a-abort.o) (raise)
/home/abhishek/udoo/udoo-neo_custom_linux/m4/gcc-arm-none-eabi-7-2018-q2-update-linux/gcc-arm-none-eabi-7-2018-q2-update/bin/../lib/gcc/arm-none-eabi/7.3.1/../../../../arm-none-eabi/lib/thumb/v7e-m/fpv4-sp/hard/libc_nano.a(lib_a-signalr.o)
                              /home/abhishek/udoo/udoo-neo_custom_linux/m4/gcc-arm-none-eabi-7-2018-q2-update-linux/gcc-arm-none-eabi-7-2018-q2-update/bin/../lib/gcc/arm-none-eabi/7.3.1/../../../../arm-none-eabi/lib/thumb/v7e-m/fpv4-sp/hard/libc_nano.a(lib_a-signal.o) (_kill_r)
/home/abhishek/udoo/udoo-neo_custom_linux/m4/gcc-arm-none-eabi-7-2018-q2-update-linux/gcc-arm-none-eabi-7-2018-q2-update/bin/../lib/gcc/arm-none-eabi/7.3.1/../../../../arm-none-eabi/lib/thumb/v7e-m/fpv4-sp/hard/libc_nano.a(lib_a-stdio.o)
                              /home/abhishek/udoo/udoo-neo_custom_linux/m4/gcc-arm-none-eabi-7-2018-q2-update-linux/gcc-arm-none-eabi-7-2018-q2-update/bin/../lib/gcc/arm-none-eabi/7.3.1/../../../../arm-none-eabi/lib/thumb/v7e-m/fpv4-sp/hard/libc_nano.a(lib_a-findfp.o) (__sread)
/home/abhishek/udoo/udoo-neo_custom_linux/m4/gcc-arm-none-eabi-7-2018-q2-update-linux/gcc-arm-none-eabi-7-2018-q2-update/bin/../lib/gcc/arm-none-eabi/7.3.1/../../../../arm-none-eabi/lib/thumb/v7e-m/fpv4-sp/hard/libc_nano.a(lib_a-writer.o)
                              /home/abhishek/udoo/udoo-neo_custom_linux/m4/gcc-arm-none-eabi-7-2018-q2-update-linux/gcc-arm-none-eabi-7-2018-q2-update/bin/../lib/gcc/arm-none-eabi/7.3.1/../../../../arm-none-eabi/lib/thumb/v7e-m/fpv4-sp/hard/libc_nano.a(lib_a-stdio.o) (_write_r)
/home/abhishek/udoo/udoo-neo_custom_linux/m4/gcc-arm-none-eabi-7-2018-q2-update-linux/gcc-arm-none-eabi-7-2018-q2-update/bin/../lib/gcc/arm-none-eabi/7.3.1/../../../../arm-none-eabi/lib/thumb/v7e-m/fpv4-sp/hard/libc_nano.a(lib_a-closer.o)
                              /home/abhishek/udoo/udoo-neo_custom_linux/m4/gcc-arm-none-eabi-7-2018-q2-update-linux/gcc-arm-none-eabi-7-2018-q2-update/bin/../lib/gcc/arm-none-eabi/7.3.1/../../../../arm-none-eabi/lib/thumb/v7e-m/fpv4-sp/hard/libc_nano.a(lib_a-stdio.o) (_close_r)
/home/abhishek/udoo/udoo-neo_custom_linux/m4/gcc-arm-none-eabi-7-2018-q2-update-linux/gcc-arm-none-eabi-7-2018-q2-update/bin/../lib/gcc/arm-none-eabi/7.3.1/../../../../arm-none-eabi/lib/thumb/v7e-m/fpv4-sp/hard/libc_nano.a(lib_a-fstatr.o)
                              /home/abhishek/udoo/udoo-neo_custom_linux/m4/gcc-arm-none-eabi-7-2018-q2-update-linux/gcc-arm-none-eabi-7-2018-q2-update/bin/../lib/gcc/arm-none-eabi/7.3.1/../../../../arm-none-eabi/lib/thumb/v7e-m/fpv4-sp/hard/libc_nano.a(lib_a-makebuf.o) (_fstat_r)
/home/abhishek/udoo/udoo-neo_custom_linux/m4/gcc-arm-none-eabi-7-2018-q2-update-linux/gcc-arm-none-eabi-7-2018-q2-update/bin/../lib/gcc/arm-none-eabi/7.3.1/../../../../arm-none-eabi/lib/thumb/v7e-m/fpv4-sp/hard/libc_nano.a(lib_a-isattyr.o)
                              /home/abhishek/udoo/udoo-neo_custom_linux/m4/gcc-arm-none-eabi-7-2018-q2-update-linux/gcc-arm-none-eabi-7-2018-q2-update/bin/../lib/gcc/arm-none-eabi/7.3.1/../../../../arm-none-eabi/lib/thumb/v7e-m/fpv4-sp/hard/libc_nano.a(lib_a-makebuf.o) (_isatty_r)
/home/abhishek/udoo/udoo-neo_custom_linux/m4/gcc-arm-none-eabi-7-2018-q2-update-linux/gcc-arm-none-eabi-7-2018-q2-update/bin/../lib/gcc/arm-none-eabi/7.3.1/../../../../arm-none-eabi/lib/thumb/v7e-m/fpv4-sp/hard/libc_nano.a(lib_a-lseekr.o)
                              /home/abhishek/udoo/udoo-neo_custom_linux/m4/gcc-arm-none-eabi-7-2018-q2-update-linux/gcc-arm-none-eabi-7-2018-q2-update/bin/../lib/gcc/arm-none-eabi/7.3.1/../../../../arm-none-eabi/lib/thumb/v7e-m/fpv4-sp/hard/libc_nano.a(lib_a-stdio.o) (_lseek_r)
/home/abhishek/udoo/udoo-neo_custom_linux/m4/gcc-arm-none-eabi-7-2018-q2-update-linux/gcc-arm-none-eabi-7-2018-q2-update/bin/../lib/gcc/arm-none-eabi/7.3.1/../../../../arm-none-eabi/lib/thumb/v7e-m/fpv4-sp/hard/libc_nano.a(lib_a-mlock.o)
                              /home/abhishek/udoo/udoo-neo_custom_linux/m4/gcc-arm-none-eabi-7-2018-q2-update-linux/gcc-arm-none-eabi-7-2018-q2-update/bin/../lib/gcc/arm-none-eabi/7.3.1/../../../../arm-none-eabi/lib/thumb/v7e-m/fpv4-sp/hard/libc_nano.a(lib_a-nano-freer.o) (__malloc_lock)
/home/abhishek/udoo/udoo-neo_custom_linux/m4/gcc-arm-none-eabi-7-2018-q2-update-linux/gcc-arm-none-eabi-7-2018-q2-update/bin/../lib/gcc/arm-none-eabi/7.3.1/../../../../arm-none-eabi/lib/thumb/v7e-m/fpv4-sp/hard/libc_nano.a(lib_a-nano-msizer.o)
                              /home/abhishek/udoo/udoo-neo_custom_linux/m4/gcc-arm-none-eabi-7-2018-q2-update-linux/gcc-arm-none-eabi-7-2018-q2-update/bin/../lib/gcc/arm-none-eabi/7.3.1/../../../../arm-none-eabi/lib/thumb/v7e-m/fpv4-sp/hard/libc_nano.a(lib_a-nano-reallocr.o) (_malloc_usable_size_r)
/home/abhishek/udoo/udoo-neo_custom_linux/m4/gcc-arm-none-eabi-7-2018-q2-update-linux/gcc-arm-none-eabi-7-2018-q2-update/bin/../lib/gcc/arm-none-eabi/7.3.1/../../../../arm-none-eabi/lib/thumb/v7e-m/fpv4-sp/hard/libc_nano.a(lib_a-readr.o)
                              /home/abhishek/udoo/udoo-neo_custom_linux/m4/gcc-arm-none-eabi-7-2018-q2-update-linux/gcc-arm-none-eabi-7-2018-q2-update/bin/../lib/gcc/arm-none-eabi/7.3.1/../../../../arm-none-eabi/lib/thumb/v7e-m/fpv4-sp/hard/libc_nano.a(lib_a-stdio.o) (_read_r)
/home/abhishek/udoo/udoo-neo_custom_linux/m4/gcc-arm-none-eabi-7-2018-q2-update-linux/gcc-arm-none-eabi-7-2018-q2-update/bin/../lib/gcc/arm-none-eabi/7.3.1/../../../../arm-none-eabi/lib/thumb/v7e-m/fpv4-sp/hard/libc_nano.a(lib_a-reent.o)
                              /home/abhishek/udoo/udoo-neo_custom_linux/m4/gcc-arm-none-eabi-7-2018-q2-update-linux/gcc-arm-none-eabi-7-2018-q2-update/bin/../lib/gcc/arm-none-eabi/7.3.1/../../../../arm-none-eabi/lib/thumb/v7e-m/fpv4-sp/hard/libc_nano.a(lib_a-sbrkr.o) (errno)
/home/abhishek/udoo/udoo-neo_custom_linux/m4/gcc-arm-none-eabi-7-2018-q2-update-linux/gcc-arm-none-eabi-7-2018-q2-update/bin/../lib/gcc/arm-none-eabi/7.3.1/thumb/v7e-m/fpv4-sp/hard/libgcc.a(_aeabi_ldivmod.o)
                              CMakeFiles/rpmsg_pingpong_freertos_example.dir/home/abhishek/udoo/udoo-neo_custom_linux/m4/FreeRTOS_BSP_1.0.1_iMX6SX/platform/devices/MCIMX6X/startup/system_MCIMX6X_M4.c.obj (__aeabi_ldivmod)
/home/abhishek/udoo/udoo-neo_custom_linux/m4/gcc-arm-none-eabi-7-2018-q2-update-linux/gcc-arm-none-eabi-7-2018-q2-update/bin/../lib/gcc/arm-none-eabi/7.3.1/thumb/v7e-m/fpv4-sp/hard/libgcc.a(_aeabi_uldivmod.o)
                              CMakeFiles/rpmsg_pingpong_freertos_example.dir/home/abhishek/udoo/udoo-neo_custom_linux/m4/FreeRTOS_BSP_1.0.1_iMX6SX/platform/devices/MCIMX6X/startup/system_MCIMX6X_M4.c.obj (__aeabi_uldivmod)
/home/abhishek/udoo/udoo-neo_custom_linux/m4/gcc-arm-none-eabi-7-2018-q2-update-linux/gcc-arm-none-eabi-7-2018-q2-update/bin/../lib/gcc/arm-none-eabi/7.3.1/thumb/v7e-m/fpv4-sp/hard/libgcc.a(_udivmoddi4.o)
                              /home/abhishek/udoo/udoo-neo_custom_linux/m4/gcc-arm-none-eabi-7-2018-q2-update-linux/gcc-arm-none-eabi-7-2018-q2-update/bin/../lib/gcc/arm-none-eabi/7.3.1/thumb/v7e-m/fpv4-sp/hard/libgcc.a(_aeabi_ldivmod.o) (__udivmoddi4)
/home/abhishek/udoo/udoo-neo_custom_linux/m4/gcc-arm-none-eabi-7-2018-q2-update-linux/gcc-arm-none-eabi-7-2018-q2-update/bin/../lib/gcc/arm-none-eabi/7.3.1/thumb/v7e-m/fpv4-sp/hard/libgcc.a(_dvmd_tls.o)
                              /home/abhishek/udoo/udoo-neo_custom_linux/m4/gcc-arm-none-eabi-7-2018-q2-update-linux/gcc-arm-none-eabi-7-2018-q2-update/bin/../lib/gcc/arm-none-eabi/7.3.1/thumb/v7e-m/fpv4-sp/hard/libgcc.a(_aeabi_ldivmod.o) (__aeabi_ldiv0)
/home/abhishek/udoo/udoo-neo_custom_linux/m4/gcc-arm-none-eabi-7-2018-q2-update-linux/gcc-arm-none-eabi-7-2018-q2-update/bin/../lib/gcc/arm-none-eabi/7.3.1/../../../../arm-none-eabi/lib/thumb/v7e-m/fpv4-sp/hard/libnosys.a(close.o)
                              /home/abhishek/udoo/udoo-neo_custom_linux/m4/gcc-arm-none-eabi-7-2018-q2-update-linux/gcc-arm-none-eabi-7-2018-q2-update/bin/../lib/gcc/arm-none-eabi/7.3.1/../../../../arm-none-eabi/lib/thumb/v7e-m/fpv4-sp/hard/libc_nano.a(lib_a-closer.o) (_close)
/home/abhishek/udoo/udoo-neo_custom_linux/m4/gcc-arm-none-eabi-7-2018-q2-update-linux/gcc-arm-none-eabi-7-2018-q2-update/bin/../lib/gcc/arm-none-eabi/7.3.1/../../../../arm-none-eabi/lib/thumb/v7e-m/fpv4-sp/hard/libnosys.a(fstat.o)
                              /home/abhishek/udoo/udoo-neo_custom_linux/m4/gcc-arm-none-eabi-7-2018-q2-update-linux/gcc-arm-none-eabi-7-2018-q2-update/bin/../lib/gcc/arm-none-eabi/7.3.1/../../../../arm-none-eabi/lib/thumb/v7e-m/fpv4-sp/hard/libc_nano.a(lib_a-fstatr.o) (_fstat)
/home/abhishek/udoo/udoo-neo_custom_linux/m4/gcc-arm-none-eabi-7-2018-q2-update-linux/gcc-arm-none-eabi-7-2018-q2-update/bin/../lib/gcc/arm-none-eabi/7.3.1/../../../../arm-none-eabi/lib/thumb/v7e-m/fpv4-sp/hard/libnosys.a(getpid.o)
                              /home/abhishek/udoo/udoo-neo_custom_linux/m4/gcc-arm-none-eabi-7-2018-q2-update-linux/gcc-arm-none-eabi-7-2018-q2-update/bin/../lib/gcc/arm-none-eabi/7.3.1/../../../../arm-none-eabi/lib/thumb/v7e-m/fpv4-sp/hard/libc_nano.a(lib_a-signalr.o) (_getpid)
/home/abhishek/udoo/udoo-neo_custom_linux/m4/gcc-arm-none-eabi-7-2018-q2-update-linux/gcc-arm-none-eabi-7-2018-q2-update/bin/../lib/gcc/arm-none-eabi/7.3.1/../../../../arm-none-eabi/lib/thumb/v7e-m/fpv4-sp/hard/libnosys.a(isatty.o)
                              /home/abhishek/udoo/udoo-neo_custom_linux/m4/gcc-arm-none-eabi-7-2018-q2-update-linux/gcc-arm-none-eabi-7-2018-q2-update/bin/../lib/gcc/arm-none-eabi/7.3.1/../../../../arm-none-eabi/lib/thumb/v7e-m/fpv4-sp/hard/libc_nano.a(lib_a-isattyr.o) (_isatty)
/home/abhishek/udoo/udoo-neo_custom_linux/m4/gcc-arm-none-eabi-7-2018-q2-update-linux/gcc-arm-none-eabi-7-2018-q2-update/bin/../lib/gcc/arm-none-eabi/7.3.1/../../../../arm-none-eabi/lib/thumb/v7e-m/fpv4-sp/hard/libnosys.a(kill.o)
                              /home/abhishek/udoo/udoo-neo_custom_linux/m4/gcc-arm-none-eabi-7-2018-q2-update-linux/gcc-arm-none-eabi-7-2018-q2-update/bin/../lib/gcc/arm-none-eabi/7.3.1/../../../../arm-none-eabi/lib/thumb/v7e-m/fpv4-sp/hard/libc_nano.a(lib_a-signalr.o) (_kill)
/home/abhishek/udoo/udoo-neo_custom_linux/m4/gcc-arm-none-eabi-7-2018-q2-update-linux/gcc-arm-none-eabi-7-2018-q2-update/bin/../lib/gcc/arm-none-eabi/7.3.1/../../../../arm-none-eabi/lib/thumb/v7e-m/fpv4-sp/hard/libnosys.a(lseek.o)
                              /home/abhishek/udoo/udoo-neo_custom_linux/m4/gcc-arm-none-eabi-7-2018-q2-update-linux/gcc-arm-none-eabi-7-2018-q2-update/bin/../lib/gcc/arm-none-eabi/7.3.1/../../../../arm-none-eabi/lib/thumb/v7e-m/fpv4-sp/hard/libc_nano.a(lib_a-lseekr.o) (_lseek)
/home/abhishek/udoo/udoo-neo_custom_linux/m4/gcc-arm-none-eabi-7-2018-q2-update-linux/gcc-arm-none-eabi-7-2018-q2-update/bin/../lib/gcc/arm-none-eabi/7.3.1/../../../../arm-none-eabi/lib/thumb/v7e-m/fpv4-sp/hard/libnosys.a(sbrk.o)
                              /home/abhishek/udoo/udoo-neo_custom_linux/m4/gcc-arm-none-eabi-7-2018-q2-update-linux/gcc-arm-none-eabi-7-2018-q2-update/bin/../lib/gcc/arm-none-eabi/7.3.1/../../../../arm-none-eabi/lib/thumb/v7e-m/fpv4-sp/hard/libc_nano.a(lib_a-sbrkr.o) (_sbrk)
/home/abhishek/udoo/udoo-neo_custom_linux/m4/gcc-arm-none-eabi-7-2018-q2-update-linux/gcc-arm-none-eabi-7-2018-q2-update/bin/../lib/gcc/arm-none-eabi/7.3.1/../../../../arm-none-eabi/lib/thumb/v7e-m/fpv4-sp/hard/libnosys.a(_exit.o)
                              /home/abhishek/udoo/udoo-neo_custom_linux/m4/gcc-arm-none-eabi-7-2018-q2-update-linux/gcc-arm-none-eabi-7-2018-q2-update/bin/../lib/gcc/arm-none-eabi/7.3.1/../../../../arm-none-eabi/lib/thumb/v7e-m/fpv4-sp/hard/libc_nano.a(lib_a-exit.o) (_exit)

Allocating common symbols
Common symbol       size              file

errno               0x4               /home/abhishek/udoo/udoo-neo_custom_linux/m4/gcc-arm-none-eabi-7-2018-q2-update-linux/gcc-arm-none-eabi-7-2018-q2-update/bin/../lib/gcc/arm-none-eabi/7.3.1/../../../../arm-none-eabi/lib/thumb/v7e-m/fpv4-sp/hard/libc_nano.a(lib_a-reent.o)

Discarded input sections

 .text          0x0000000000000000        0x0 /home/abhishek/udoo/udoo-neo_custom_linux/m4/gcc-arm-none-eabi-7-2018-q2-update-linux/gcc-arm-none-eabi-7-2018-q2-update/bin/../lib/gcc/arm-none-eabi/7.3.1/thumb/v7e-m/fpv4-sp/hard/crti.o
 .data          0x0000000000000000        0x0 /home/abhishek/udoo/udoo-neo_custom_linux/m4/gcc-arm-none-eabi-7-2018-q2-update-linux/gcc-arm-none-eabi-7-2018-q2-update/bin/../lib/gcc/arm-none-eabi/7.3.1/thumb/v7e-m/fpv4-sp/hard/crti.o
 .bss           0x0000000000000000        0x0 /home/abhishek/udoo/udoo-neo_custom_linux/m4/gcc-arm-none-eabi-7-2018-q2-update-linux/gcc-arm-none-eabi-7-2018-q2-update/bin/../lib/gcc/arm-none-eabi/7.3.1/thumb/v7e-m/fpv4-sp/hard/crti.o
 .data          0x0000000000000000        0x4 /home/abhishek/udoo/udoo-neo_custom_linux/m4/gcc-arm-none-eabi-7-2018-q2-update-linux/gcc-arm-none-eabi-7-2018-q2-update/bin/../lib/gcc/arm-none-eabi/7.3.1/thumb/v7e-m/fpv4-sp/hard/crtbegin.o
 .data          0x0000000000000000        0x0 /home/abhishek/udoo/udoo-neo_custom_linux/m4/gcc-arm-none-eabi-7-2018-q2-update-linux/gcc-arm-none-eabi-7-2018-q2-update/bin/../lib/gcc/arm-none-eabi/7.3.1/../../../../arm-none-eabi/lib/thumb/v7e-m/fpv4-sp/hard/crt0.o
 .bss           0x0000000000000000        0x0 /home/abhishek/udoo/udoo-neo_custom_linux/m4/gcc-arm-none-eabi-7-2018-q2-update-linux/gcc-arm-none-eabi-7-2018-q2-update/bin/../lib/gcc/arm-none-eabi/7.3.1/../../../../arm-none-eabi/lib/thumb/v7e-m/fpv4-sp/hard/crt0.o
 .ARM.extab     0x0000000000000000        0x0 /home/abhishek/udoo/udoo-neo_custom_linux/m4/gcc-arm-none-eabi-7-2018-q2-update-linux/gcc-arm-none-eabi-7-2018-q2-update/bin/../lib/gcc/arm-none-eabi/7.3.1/../../../../arm-none-eabi/lib/thumb/v7e-m/fpv4-sp/hard/crt0.o
 .text          0x0000000000000000        0x0 CMakeFiles/rpmsg_pingpong_freertos_example.dir/home/abhishek/udoo/udoo-neo_custom_linux/m4/FreeRTOS_BSP_1.0.1_iMX6SX/rtos/FreeRTOS/Source/portable/GCC/ARM_CM4F/port.c.obj
 .data          0x0000000000000000        0x0 CMakeFiles/rpmsg_pingpong_freertos_example.dir/home/abhishek/udoo/udoo-neo_custom_linux/m4/FreeRTOS_BSP_1.0.1_iMX6SX/rtos/FreeRTOS/Source/portable/GCC/ARM_CM4F/port.c.obj
 .bss           0x0000000000000000        0x0 CMakeFiles/rpmsg_pingpong_freertos_example.dir/home/abhishek/udoo/udoo-neo_custom_linux/m4/FreeRTOS_BSP_1.0.1_iMX6SX/rtos/FreeRTOS/Source/portable/GCC/ARM_CM4F/port.c.obj
 .text.vPortEndScheduler
                0x0000000000000000       0x18 CMakeFiles/rpmsg_pingpong_freertos_example.dir/home/abhishek/udoo/udoo-neo_custom_linux/m4/FreeRTOS_BSP_1.0.1_iMX6SX/rtos/FreeRTOS/Source/portable/GCC/ARM_CM4F/port.c.obj
 .data          0x0000000000000000        0x0 CMakeFiles/rpmsg_pingpong_freertos_example.dir/home/abhishek/udoo/udoo-neo_custom_linux/m4/FreeRTOS_BSP_1.0.1_iMX6SX/platform/devices/MCIMX6X/startup/gcc/startup_MCIMX6X_M4.S.obj
 .bss           0x0000000000000000        0x0 CMakeFiles/rpmsg_pingpong_freertos_example.dir/home/abhishek/udoo/udoo-neo_custom_linux/m4/FreeRTOS_BSP_1.0.1_iMX6SX/platform/devices/MCIMX6X/startup/gcc/startup_MCIMX6X_M4.S.obj
 .text          0x0000000000000000        0x0 CMakeFiles/rpmsg_pingpong_freertos_example.dir/home/abhishek/udoo/udoo-neo_custom_linux/m4/FreeRTOS_BSP_1.0.1_iMX6SX/rtos/FreeRTOS/Source/portable/MemMang/heap_2.c.obj
 .data          0x0000000000000000        0x0 CMakeFiles/rpmsg_pingpong_freertos_example.dir/home/abhishek/udoo/udoo-neo_custom_linux/m4/FreeRTOS_BSP_1.0.1_iMX6SX/rtos/FreeRTOS/Source/portable/MemMang/heap_2.c.obj
 .bss           0x0000000000000000        0x0 CMakeFiles/rpmsg_pingpong_freertos_example.dir/home/abhishek/udoo/udoo-neo_custom_linux/m4/FreeRTOS_BSP_1.0.1_iMX6SX/rtos/FreeRTOS/Source/portable/MemMang/heap_2.c.obj
 .text.xPortGetFreeHeapSize
                0x0000000000000000        0xc CMakeFiles/rpmsg_pingpong_freertos_example.dir/home/abhishek/udoo/udoo-neo_custom_linux/m4/FreeRTOS_BSP_1.0.1_iMX6SX/rtos/FreeRTOS/Source/portable/MemMang/heap_2.c.obj
 .text.vPortInitialiseBlocks
                0x0000000000000000        0x2 CMakeFiles/rpmsg_pingpong_freertos_example.dir/home/abhishek/udoo/udoo-neo_custom_linux/m4/FreeRTOS_BSP_1.0.1_iMX6SX/rtos/FreeRTOS/Source/portable/MemMang/heap_2.c.obj
 .text          0x0000000000000000        0x0 CMakeFiles/rpmsg_pingpong_freertos_example.dir/home/abhishek/udoo/udoo-neo_custom_linux/m4/FreeRTOS_BSP_1.0.1_iMX6SX/examples/imx6sx_sdb_m4/demo_apps/rpmsg/pingpong_freertos/pingpong_freertos.c.obj
 .data          0x0000000000000000        0x0 CMakeFiles/rpmsg_pingpong_freertos_example.dir/home/abhishek/udoo/udoo-neo_custom_linux/m4/FreeRTOS_BSP_1.0.1_iMX6SX/examples/imx6sx_sdb_m4/demo_apps/rpmsg/pingpong_freertos/pingpong_freertos.c.obj
 .bss           0x0000000000000000        0x0 CMakeFiles/rpmsg_pingpong_freertos_example.dir/home/abhishek/udoo/udoo-neo_custom_linux/m4/FreeRTOS_BSP_1.0.1_iMX6SX/examples/imx6sx_sdb_m4/demo_apps/rpmsg/pingpong_freertos/pingpong_freertos.c.obj
 .text          0x0000000000000000        0x0 CMakeFiles/rpmsg_pingpong_freertos_example.dir/home/abhishek/udoo/udoo-neo_custom_linux/m4/FreeRTOS_BSP_1.0.1_iMX6SX/middleware/multicore/open-amp/rpmsg/rpmsg_rtos.c.obj
 .data          0x0000000000000000        0x0 CMakeFiles/rpmsg_pingpong_freertos_example.dir/home/abhishek/udoo/udoo-neo_custom_linux/m4/FreeRTOS_BSP_1.0.1_iMX6SX/middleware/multicore/open-amp/rpmsg/rpmsg_rtos.c.obj
 .bss           0x0000000000000000        0x0 CMakeFiles/rpmsg_pingpong_freertos_example.dir/home/abhishek/udoo/udoo-neo_custom_linux/m4/FreeRTOS_BSP_1.0.1_iMX6SX/middleware/multicore/open-amp/rpmsg/rpmsg_rtos.c.obj
 .text.rpmsg_rtos_deinit
                0x0000000000000000       0x34 CMakeFiles/rpmsg_pingpong_freertos_example.dir/home/abhishek/udoo/udoo-neo_custom_linux/m4/FreeRTOS_BSP_1.0.1_iMX6SX/middleware/multicore/open-amp/rpmsg/rpmsg_rtos.c.obj
 .text.rpmsg_rtos_create_ept
                0x0000000000000000       0x4c CMakeFiles/rpmsg_pingpong_freertos_example.dir/home/abhishek/udoo/udoo-neo_custom_linux/m4/FreeRTOS_BSP_1.0.1_iMX6SX/middleware/multicore/open-amp/rpmsg/rpmsg_rtos.c.obj
 .text.rpmsg_rtos_destroy_ept
                0x0000000000000000       0x12 CMakeFiles/rpmsg_pingpong_freertos_example.dir/home/abhishek/udoo/udoo-neo_custom_linux/m4/FreeRTOS_BSP_1.0.1_iMX6SX/middleware/multicore/open-amp/rpmsg/rpmsg_rtos.c.obj
 .text.rpmsg_rtos_recv_nocopy
                0x0000000000000000       0x48 CMakeFiles/rpmsg_pingpong_freertos_example.dir/home/abhishek/udoo/udoo-neo_custom_linux/m4/FreeRTOS_BSP_1.0.1_iMX6SX/middleware/multicore/open-amp/rpmsg/rpmsg_rtos.c.obj
 .text.rpmsg_rtos_recv_nocopy_free
                0x0000000000000000       0x20 CMakeFiles/rpmsg_pingpong_freertos_example.dir/home/abhishek/udoo/udoo-neo_custom_linux/m4/FreeRTOS_BSP_1.0.1_iMX6SX/middleware/multicore/open-amp/rpmsg/rpmsg_rtos.c.obj
 .text.rpmsg_rtos_alloc_tx_buffer
                0x0000000000000000       0x16 CMakeFiles/rpmsg_pingpong_freertos_example.dir/home/abhishek/udoo/udoo-neo_custom_linux/m4/FreeRTOS_BSP_1.0.1_iMX6SX/middleware/multicore/open-amp/rpmsg/rpmsg_rtos.c.obj
 .text.rpmsg_rtos_send_nocopy
                0x0000000000000000       0x2c CMakeFiles/rpmsg_pingpong_freertos_example.dir/home/abhishek/udoo/udoo-neo_custom_linux/m4/FreeRTOS_BSP_1.0.1_iMX6SX/middleware/multicore/open-amp/rpmsg/rpmsg_rtos.c.obj
 .rodata.__func__.7368
                0x0000000000000000       0x12 CMakeFiles/rpmsg_pingpong_freertos_example.dir/home/abhishek/udoo/udoo-neo_custom_linux/m4/FreeRTOS_BSP_1.0.1_iMX6SX/middleware/multicore/open-amp/rpmsg/rpmsg_rtos.c.obj
 .rodata.rpmsg_rtos_deinit.str1.1
                0x0000000000000000        0xd CMakeFiles/rpmsg_pingpong_freertos_example.dir/home/abhishek/udoo/udoo-neo_custom_linux/m4/FreeRTOS_BSP_1.0.1_iMX6SX/middleware/multicore/open-amp/rpmsg/rpmsg_rtos.c.obj
 .text          0x0000000000000000        0x0 CMakeFiles/rpmsg_pingpong_freertos_example.dir/home/abhishek/udoo/udoo-neo_custom_linux/m4/FreeRTOS_BSP_1.0.1_iMX6SX/middleware/multicore/open-amp/porting/imx6sx_m4/platform.c.obj
 .data          0x0000000000000000        0x0 CMakeFiles/rpmsg_pingpong_freertos_example.dir/home/abhishek/udoo/udoo-neo_custom_linux/m4/FreeRTOS_BSP_1.0.1_iMX6SX/middleware/multicore/open-amp/porting/imx6sx_m4/platform.c.obj
 .bss           0x0000000000000000        0x0 CMakeFiles/rpmsg_pingpong_freertos_example.dir/home/abhishek/udoo/udoo-neo_custom_linux/m4/FreeRTOS_BSP_1.0.1_iMX6SX/middleware/multicore/open-amp/porting/imx6sx_m4/platform.c.obj
 .text.platform_time_delay
                0x0000000000000000       0x24 CMakeFiles/rpmsg_pingpong_freertos_example.dir/home/abhishek/udoo/udoo-neo_custom_linux/m4/FreeRTOS_BSP_1.0.1_iMX6SX/middleware/multicore/open-amp/porting/imx6sx_m4/platform.c.obj
 .text.platform_cache_all_flush_invalidate
                0x0000000000000000        0x2 CMakeFiles/rpmsg_pingpong_freertos_example.dir/home/abhishek/udoo/udoo-neo_custom_linux/m4/FreeRTOS_BSP_1.0.1_iMX6SX/middleware/multicore/open-amp/porting/imx6sx_m4/platform.c.obj
 .text.platform_cache_disable
                0x0000000000000000        0x2 CMakeFiles/rpmsg_pingpong_freertos_example.dir/home/abhishek/udoo/udoo-neo_custom_linux/m4/FreeRTOS_BSP_1.0.1_iMX6SX/middleware/multicore/open-amp/porting/imx6sx_m4/platform.c.obj
 .text          0x0000000000000000        0x0 CMakeFiles/rpmsg_pingpong_freertos_example.dir/home/abhishek/udoo/udoo-neo_custom_linux/m4/FreeRTOS_BSP_1.0.1_iMX6SX/middleware/multicore/open-amp/porting/imx6sx_m4/platform_info.c.obj
 .data          0x0000000000000000        0x0 CMakeFiles/rpmsg_pingpong_freertos_example.dir/home/abhishek/udoo/udoo-neo_custom_linux/m4/FreeRTOS_BSP_1.0.1_iMX6SX/middleware/multicore/open-amp/porting/imx6sx_m4/platform_info.c.obj
 .bss           0x0000000000000000        0x0 CMakeFiles/rpmsg_pingpong_freertos_example.dir/home/abhishek/udoo/udoo-neo_custom_linux/m4/FreeRTOS_BSP_1.0.1_iMX6SX/middleware/multicore/open-amp/porting/imx6sx_m4/platform_info.c.obj
 .text.platform_get_processor_for_fw
                0x0000000000000000        0x4 CMakeFiles/rpmsg_pingpong_freertos_example.dir/home/abhishek/udoo/udoo-neo_custom_linux/m4/FreeRTOS_BSP_1.0.1_iMX6SX/middleware/multicore/open-amp/porting/imx6sx_m4/platform_info.c.obj
 .text          0x0000000000000000        0x0 CMakeFiles/rpmsg_pingpong_freertos_example.dir/home/abhishek/udoo/udoo-neo_custom_linux/m4/FreeRTOS_BSP_1.0.1_iMX6SX/middleware/multicore/open-amp/common/hil/hil.c.obj
 .data          0x0000000000000000        0x0 CMakeFiles/rpmsg_pingpong_freertos_example.dir/home/abhishek/udoo/udoo-neo_custom_linux/m4/FreeRTOS_BSP_1.0.1_iMX6SX/middleware/multicore/open-amp/common/hil/hil.c.obj
 .bss           0x0000000000000000        0x0 CMakeFiles/rpmsg_pingpong_freertos_example.dir/home/abhishek/udoo/udoo-neo_custom_linux/m4/FreeRTOS_BSP_1.0.1_iMX6SX/middleware/multicore/open-amp/common/hil/hil.c.obj
 .text.hil_get_cpuforfw
                0x0000000000000000        0x4 CMakeFiles/rpmsg_pingpong_freertos_example.dir/home/abhishek/udoo/udoo-neo_custom_linux/m4/FreeRTOS_BSP_1.0.1_iMX6SX/middleware/multicore/open-amp/common/hil/hil.c.obj
 .text.hil_delete_proc
                0x0000000000000000       0x34 CMakeFiles/rpmsg_pingpong_freertos_example.dir/home/abhishek/udoo/udoo-neo_custom_linux/m4/FreeRTOS_BSP_1.0.1_iMX6SX/middleware/multicore/open-amp/common/hil/hil.c.obj
 .text.hil_get_proc
                0x0000000000000000       0x1c CMakeFiles/rpmsg_pingpong_freertos_example.dir/home/abhishek/udoo/udoo-neo_custom_linux/m4/FreeRTOS_BSP_1.0.1_iMX6SX/middleware/multicore/open-amp/common/hil/hil.c.obj
 .text.hil_get_vdev_info
                0x0000000000000000        0x4 CMakeFiles/rpmsg_pingpong_freertos_example.dir/home/abhishek/udoo/udoo-neo_custom_linux/m4/FreeRTOS_BSP_1.0.1_iMX6SX/middleware/multicore/open-amp/common/hil/hil.c.obj
 .text.hil_boot_cpu
                0x0000000000000000       0x12 CMakeFiles/rpmsg_pingpong_freertos_example.dir/home/abhishek/udoo/udoo-neo_custom_linux/m4/FreeRTOS_BSP_1.0.1_iMX6SX/middleware/multicore/open-amp/common/hil/hil.c.obj
 .text.hil_shutdown_cpu
                0x0000000000000000        0xe CMakeFiles/rpmsg_pingpong_freertos_example.dir/home/abhishek/udoo/udoo-neo_custom_linux/m4/FreeRTOS_BSP_1.0.1_iMX6SX/middleware/multicore/open-amp/common/hil/hil.c.obj
 .text.hil_get_firmware
                0x0000000000000000        0x4 CMakeFiles/rpmsg_pingpong_freertos_example.dir/home/abhishek/udoo/udoo-neo_custom_linux/m4/FreeRTOS_BSP_1.0.1_iMX6SX/middleware/multicore/open-amp/common/hil/hil.c.obj
 .text          0x0000000000000000        0x0 CMakeFiles/rpmsg_pingpong_freertos_example.dir/home/abhishek/udoo/udoo-neo_custom_linux/m4/FreeRTOS_BSP_1.0.1_iMX6SX/middleware/multicore/open-amp/common/llist/llist.c.obj
 .data          0x0000000000000000        0x0 CMakeFiles/rpmsg_pingpong_freertos_example.dir/home/abhishek/udoo/udoo-neo_custom_linux/m4/FreeRTOS_BSP_1.0.1_iMX6SX/middleware/multicore/open-amp/common/llist/llist.c.obj
 .bss           0x0000000000000000        0x0 CMakeFiles/rpmsg_pingpong_freertos_example.dir/home/abhishek/udoo/udoo-neo_custom_linux/m4/FreeRTOS_BSP_1.0.1_iMX6SX/middleware/multicore/open-amp/common/llist/llist.c.obj
 .text          0x0000000000000000        0x0 CMakeFiles/rpmsg_pingpong_freertos_example.dir/home/abhishek/udoo/udoo-neo_custom_linux/m4/FreeRTOS_BSP_1.0.1_iMX6SX/middleware/multicore/open-amp/common/shm/sh_mem.c.obj
 .data          0x0000000000000000        0x0 CMakeFiles/rpmsg_pingpong_freertos_example.dir/home/abhishek/udoo/udoo-neo_custom_linux/m4/FreeRTOS_BSP_1.0.1_iMX6SX/middleware/multicore/open-amp/common/shm/sh_mem.c.obj
 .bss           0x0000000000000000        0x0 CMakeFiles/rpmsg_pingpong_freertos_example.dir/home/abhishek/udoo/udoo-neo_custom_linux/m4/FreeRTOS_BSP_1.0.1_iMX6SX/middleware/multicore/open-amp/common/shm/sh_mem.c.obj
 .text          0x0000000000000000        0x0 CMakeFiles/rpmsg_pingpong_freertos_example.dir/home/abhishek/udoo/udoo-neo_custom_linux/m4/FreeRTOS_BSP_1.0.1_iMX6SX/middleware/multicore/open-amp/porting/config/config.c.obj
 .data          0x0000000000000000        0x0 CMakeFiles/rpmsg_pingpong_freertos_example.dir/home/abhishek/udoo/udoo-neo_custom_linux/m4/FreeRTOS_BSP_1.0.1_iMX6SX/middleware/multicore/open-amp/porting/config/config.c.obj
 .bss           0x0000000000000000        0x0 CMakeFiles/rpmsg_pingpong_freertos_example.dir/home/abhishek/udoo/udoo-neo_custom_linux/m4/FreeRTOS_BSP_1.0.1_iMX6SX/middleware/multicore/open-amp/porting/config/config.c.obj
 .text.config_get_firmware
                0x0000000000000000        0x6 CMakeFiles/rpmsg_pingpong_freertos_example.dir/home/abhishek/udoo/udoo-neo_custom_linux/m4/FreeRTOS_BSP_1.0.1_iMX6SX/middleware/multicore/open-amp/porting/config/config.c.obj
 .comment       0x0000000000000000       0x80 CMakeFiles/rpmsg_pingpong_freertos_example.dir/home/abhishek/udoo/udoo-neo_custom_linux/m4/FreeRTOS_BSP_1.0.1_iMX6SX/middleware/multicore/open-amp/porting/config/config.c.obj
 .ARM.attributes
                0x0000000000000000       0x39 CMakeFiles/rpmsg_pingpong_freertos_example.dir/home/abhishek/udoo/udoo-neo_custom_linux/m4/FreeRTOS_BSP_1.0.1_iMX6SX/middleware/multicore/open-amp/porting/config/config.c.obj
 .text          0x0000000000000000        0x0 CMakeFiles/rpmsg_pingpong_freertos_example.dir/home/abhishek/udoo/udoo-neo_custom_linux/m4/FreeRTOS_BSP_1.0.1_iMX6SX/middleware/multicore/open-amp/rpmsg/remote_device.c.obj
 .data          0x0000000000000000        0x0 CMakeFiles/rpmsg_pingpong_freertos_example.dir/home/abhishek/udoo/udoo-neo_custom_linux/m4/FreeRTOS_BSP_1.0.1_iMX6SX/middleware/multicore/open-amp/rpmsg/remote_device.c.obj
 .bss           0x0000000000000000        0x0 CMakeFiles/rpmsg_pingpong_freertos_example.dir/home/abhishek/udoo/udoo-neo_custom_linux/m4/FreeRTOS_BSP_1.0.1_iMX6SX/middleware/multicore/open-amp/rpmsg/remote_device.c.obj
 .text.rpmsg_rdev_get_chnl_from_addr
                0x0000000000000000       0x2c CMakeFiles/rpmsg_pingpong_freertos_example.dir/home/abhishek/udoo/udoo-neo_custom_linux/m4/FreeRTOS_BSP_1.0.1_iMX6SX/middleware/multicore/open-amp/rpmsg/remote_device.c.obj
 .text          0x0000000000000000        0x0 CMakeFiles/rpmsg_pingpong_freertos_example.dir/home/abhishek/udoo/udoo-neo_custom_linux/m4/FreeRTOS_BSP_1.0.1_iMX6SX/middleware/multicore/open-amp/rpmsg/rpmsg.c.obj
 .data          0x0000000000000000        0x0 CMakeFiles/rpmsg_pingpong_freertos_example.dir/home/abhishek/udoo/udoo-neo_custom_linux/m4/FreeRTOS_BSP_1.0.1_iMX6SX/middleware/multicore/open-amp/rpmsg/rpmsg.c.obj
 .bss           0x0000000000000000        0x0 CMakeFiles/rpmsg_pingpong_freertos_example.dir/home/abhishek/udoo/udoo-neo_custom_linux/m4/FreeRTOS_BSP_1.0.1_iMX6SX/middleware/multicore/open-amp/rpmsg/rpmsg.c.obj
 .text.rpmsg_get_buffer_size
                0x0000000000000000       0x48 CMakeFiles/rpmsg_pingpong_freertos_example.dir/home/abhishek/udoo/udoo-neo_custom_linux/m4/FreeRTOS_BSP_1.0.1_iMX6SX/middleware/multicore/open-amp/rpmsg/rpmsg.c.obj
 .text.rpmsg_create_channel
                0x0000000000000000       0x52 CMakeFiles/rpmsg_pingpong_freertos_example.dir/home/abhishek/udoo/udoo-neo_custom_linux/m4/FreeRTOS_BSP_1.0.1_iMX6SX/middleware/multicore/open-amp/rpmsg/rpmsg.c.obj
 .text.rpmsg_delete_channel
                0x0000000000000000       0x30 CMakeFiles/rpmsg_pingpong_freertos_example.dir/home/abhishek/udoo/udoo-neo_custom_linux/m4/FreeRTOS_BSP_1.0.1_iMX6SX/middleware/multicore/open-amp/rpmsg/rpmsg.c.obj
 .text          0x0000000000000000        0x0 CMakeFiles/rpmsg_pingpong_freertos_example.dir/home/abhishek/udoo/udoo-neo_custom_linux/m4/FreeRTOS_BSP_1.0.1_iMX6SX/middleware/multicore/open-amp/rpmsg/rpmsg_ext.c.obj
 .data          0x0000000000000000        0x0 CMakeFiles/rpmsg_pingpong_freertos_example.dir/home/abhishek/udoo/udoo-neo_custom_linux/m4/FreeRTOS_BSP_1.0.1_iMX6SX/middleware/multicore/open-amp/rpmsg/rpmsg_ext.c.obj
 .bss           0x0000000000000000        0x0 CMakeFiles/rpmsg_pingpong_freertos_example.dir/home/abhishek/udoo/udoo-neo_custom_linux/m4/FreeRTOS_BSP_1.0.1_iMX6SX/middleware/multicore/open-amp/rpmsg/rpmsg_ext.c.obj
 .text.rpmsg_alloc_tx_buffer
                0x0000000000000000       0x74 CMakeFiles/rpmsg_pingpong_freertos_example.dir/home/abhishek/udoo/udoo-neo_custom_linux/m4/FreeRTOS_BSP_1.0.1_iMX6SX/middleware/multicore/open-amp/rpmsg/rpmsg_ext.c.obj
 .text.rpmsg_send_offchannel_nocopy
                0x0000000000000000       0x58 CMakeFiles/rpmsg_pingpong_freertos_example.dir/home/abhishek/udoo/udoo-neo_custom_linux/m4/FreeRTOS_BSP_1.0.1_iMX6SX/middleware/multicore/open-amp/rpmsg/rpmsg_ext.c.obj
 .text          0x0000000000000000        0x0 CMakeFiles/rpmsg_pingpong_freertos_example.dir/home/abhishek/udoo/udoo-neo_custom_linux/m4/FreeRTOS_BSP_1.0.1_iMX6SX/middleware/multicore/open-amp/rpmsg/rpmsg_core.c.obj
 .data          0x0000000000000000        0x0 CMakeFiles/rpmsg_pingpong_freertos_example.dir/home/abhishek/udoo/udoo-neo_custom_linux/m4/FreeRTOS_BSP_1.0.1_iMX6SX/middleware/multicore/open-amp/rpmsg/rpmsg_core.c.obj
 .bss           0x0000000000000000        0x0 CMakeFiles/rpmsg_pingpong_freertos_example.dir/home/abhishek/udoo/udoo-neo_custom_linux/m4/FreeRTOS_BSP_1.0.1_iMX6SX/middleware/multicore/open-amp/rpmsg/rpmsg_core.c.obj
 .text          0x0000000000000000        0x0 CMakeFiles/rpmsg_pingpong_freertos_example.dir/home/abhishek/udoo/udoo-neo_custom_linux/m4/FreeRTOS_BSP_1.0.1_iMX6SX/middleware/multicore/open-amp/virtio/virtio.c.obj
 .data          0x0000000000000000        0x0 CMakeFiles/rpmsg_pingpong_freertos_example.dir/home/abhishek/udoo/udoo-neo_custom_linux/m4/FreeRTOS_BSP_1.0.1_iMX6SX/middleware/multicore/open-amp/virtio/virtio.c.obj
 .bss           0x0000000000000000        0x0 CMakeFiles/rpmsg_pingpong_freertos_example.dir/home/abhishek/udoo/udoo-neo_custom_linux/m4/FreeRTOS_BSP_1.0.1_iMX6SX/middleware/multicore/open-amp/virtio/virtio.c.obj
 .text.virtio_dev_name
                0x0000000000000000       0x1c CMakeFiles/rpmsg_pingpong_freertos_example.dir/home/abhishek/udoo/udoo-neo_custom_linux/m4/FreeRTOS_BSP_1.0.1_iMX6SX/middleware/multicore/open-amp/virtio/virtio.c.obj
 .text.virtio_describe
                0x0000000000000000        0x2 CMakeFiles/rpmsg_pingpong_freertos_example.dir/home/abhishek/udoo/udoo-neo_custom_linux/m4/FreeRTOS_BSP_1.0.1_iMX6SX/middleware/multicore/open-amp/virtio/virtio.c.obj
 .data.virtio_ident_table
                0x0000000000000000       0x48 CMakeFiles/rpmsg_pingpong_freertos_example.dir/home/abhishek/udoo/udoo-neo_custom_linux/m4/FreeRTOS_BSP_1.0.1_iMX6SX/middleware/multicore/open-amp/virtio/virtio.c.obj
 .rodata.str1.1
                0x0000000000000000       0x41 CMakeFiles/rpmsg_pingpong_freertos_example.dir/home/abhishek/udoo/udoo-neo_custom_linux/m4/FreeRTOS_BSP_1.0.1_iMX6SX/middleware/multicore/open-amp/virtio/virtio.c.obj
 .comment       0x0000000000000000       0x80 CMakeFiles/rpmsg_pingpong_freertos_example.dir/home/abhishek/udoo/udoo-neo_custom_linux/m4/FreeRTOS_BSP_1.0.1_iMX6SX/middleware/multicore/open-amp/virtio/virtio.c.obj
 .ARM.attributes
                0x0000000000000000       0x39 CMakeFiles/rpmsg_pingpong_freertos_example.dir/home/abhishek/udoo/udoo-neo_custom_linux/m4/FreeRTOS_BSP_1.0.1_iMX6SX/middleware/multicore/open-amp/virtio/virtio.c.obj
 .text          0x0000000000000000        0x0 CMakeFiles/rpmsg_pingpong_freertos_example.dir/home/abhishek/udoo/udoo-neo_custom_linux/m4/FreeRTOS_BSP_1.0.1_iMX6SX/middleware/multicore/open-amp/virtio/virtqueue.c.obj
 .data          0x0000000000000000        0x0 CMakeFiles/rpmsg_pingpong_freertos_example.dir/home/abhishek/udoo/udoo-neo_custom_linux/m4/FreeRTOS_BSP_1.0.1_iMX6SX/middleware/multicore/open-amp/virtio/virtqueue.c.obj
 .bss           0x0000000000000000        0x0 CMakeFiles/rpmsg_pingpong_freertos_example.dir/home/abhishek/udoo/udoo-neo_custom_linux/m4/FreeRTOS_BSP_1.0.1_iMX6SX/middleware/multicore/open-amp/virtio/virtqueue.c.obj
 .text.virtqueue_add_single_buffer
                0x0000000000000000       0x6c CMakeFiles/rpmsg_pingpong_freertos_example.dir/home/abhishek/udoo/udoo-neo_custom_linux/m4/FreeRTOS_BSP_1.0.1_iMX6SX/middleware/multicore/open-amp/virtio/virtqueue.c.obj
 .text.virtqueue_enable_cb
                0x0000000000000000       0x36 CMakeFiles/rpmsg_pingpong_freertos_example.dir/home/abhishek/udoo/udoo-neo_custom_linux/m4/FreeRTOS_BSP_1.0.1_iMX6SX/middleware/multicore/open-amp/virtio/virtqueue.c.obj
 .text.virtqueue_dump
                0x0000000000000000        0x2 CMakeFiles/rpmsg_pingpong_freertos_example.dir/home/abhishek/udoo/udoo-neo_custom_linux/m4/FreeRTOS_BSP_1.0.1_iMX6SX/middleware/multicore/open-amp/virtio/virtqueue.c.obj
 .text.virtqueue_get_desc_size
                0x0000000000000000       0x26 CMakeFiles/rpmsg_pingpong_freertos_example.dir/home/abhishek/udoo/udoo-neo_custom_linux/m4/FreeRTOS_BSP_1.0.1_iMX6SX/middleware/multicore/open-amp/virtio/virtqueue.c.obj
 .text          0x0000000000000000        0x0 CMakeFiles/rpmsg_pingpong_freertos_example.dir/home/abhishek/udoo/udoo-neo_custom_linux/m4/FreeRTOS_BSP_1.0.1_iMX6SX/middleware/multicore/open-amp/porting/env/freertos/rpmsg_porting.c.obj
 .data          0x0000000000000000        0x0 CMakeFiles/rpmsg_pingpong_freertos_example.dir/home/abhishek/udoo/udoo-neo_custom_linux/m4/FreeRTOS_BSP_1.0.1_iMX6SX/middleware/multicore/open-amp/porting/env/freertos/rpmsg_porting.c.obj
 .bss           0x0000000000000000        0x0 CMakeFiles/rpmsg_pingpong_freertos_example.dir/home/abhishek/udoo/udoo-neo_custom_linux/m4/FreeRTOS_BSP_1.0.1_iMX6SX/middleware/multicore/open-amp/porting/env/freertos/rpmsg_porting.c.obj
 .text.env_in_isr
                0x0000000000000000        0x4 CMakeFiles/rpmsg_pingpong_freertos_example.dir/home/abhishek/udoo/udoo-neo_custom_linux/m4/FreeRTOS_BSP_1.0.1_iMX6SX/middleware/multicore/open-amp/porting/env/freertos/rpmsg_porting.c.obj
 .text.env_strcmp
                0x0000000000000000        0x4 CMakeFiles/rpmsg_pingpong_freertos_example.dir/home/abhishek/udoo/udoo-neo_custom_linux/m4/FreeRTOS_BSP_1.0.1_iMX6SX/middleware/multicore/open-amp/porting/env/freertos/rpmsg_porting.c.obj
 .text.env_disable_interrupts
                0x0000000000000000        0x4 CMakeFiles/rpmsg_pingpong_freertos_example.dir/home/abhishek/udoo/udoo-neo_custom_linux/m4/FreeRTOS_BSP_1.0.1_iMX6SX/middleware/multicore/open-amp/porting/env/freertos/rpmsg_porting.c.obj
 .text.env_restore_interrupts
                0x0000000000000000        0x4 CMakeFiles/rpmsg_pingpong_freertos_example.dir/home/abhishek/udoo/udoo-neo_custom_linux/m4/FreeRTOS_BSP_1.0.1_iMX6SX/middleware/multicore/open-amp/porting/env/freertos/rpmsg_porting.c.obj
 .text.env_update_isr
                0x0000000000000000       0x34 CMakeFiles/rpmsg_pingpong_freertos_example.dir/home/abhishek/udoo/udoo-neo_custom_linux/m4/FreeRTOS_BSP_1.0.1_iMX6SX/middleware/multicore/open-amp/porting/env/freertos/rpmsg_porting.c.obj
 .text.env_disable_interrupt
                0x0000000000000000        0x4 CMakeFiles/rpmsg_pingpong_freertos_example.dir/home/abhishek/udoo/udoo-neo_custom_linux/m4/FreeRTOS_BSP_1.0.1_iMX6SX/middleware/multicore/open-amp/porting/env/freertos/rpmsg_porting.c.obj
 .text.env_disable_cache
                0x0000000000000000        0xe CMakeFiles/rpmsg_pingpong_freertos_example.dir/home/abhishek/udoo/udoo-neo_custom_linux/m4/FreeRTOS_BSP_1.0.1_iMX6SX/middleware/multicore/open-amp/porting/env/freertos/rpmsg_porting.c.obj
 .text.env_get_timestamp
                0x0000000000000000       0x16 CMakeFiles/rpmsg_pingpong_freertos_example.dir/home/abhishek/udoo/udoo-neo_custom_linux/m4/FreeRTOS_BSP_1.0.1_iMX6SX/middleware/multicore/open-amp/porting/env/freertos/rpmsg_porting.c.obj
 .text.env_delete_queue
                0x0000000000000000        0x4 CMakeFiles/rpmsg_pingpong_freertos_example.dir/home/abhishek/udoo/udoo-neo_custom_linux/m4/FreeRTOS_BSP_1.0.1_iMX6SX/middleware/multicore/open-amp/porting/env/freertos/rpmsg_porting.c.obj
 .rodata.__func__.7186
                0x0000000000000000        0xf CMakeFiles/rpmsg_pingpong_freertos_example.dir/home/abhishek/udoo/udoo-neo_custom_linux/m4/FreeRTOS_BSP_1.0.1_iMX6SX/middleware/multicore/open-amp/porting/env/freertos/rpmsg_porting.c.obj
 .text          0x0000000000000000        0x0 CMakeFiles/rpmsg_pingpong_freertos_example.dir/home/abhishek/udoo/udoo-neo_custom_linux/m4/FreeRTOS_BSP_1.0.1_iMX6SX/rtos/FreeRTOS/Source/croutine.c.obj
 .data          0x0000000000000000        0x0 CMakeFiles/rpmsg_pingpong_freertos_example.dir/home/abhishek/udoo/udoo-neo_custom_linux/m4/FreeRTOS_BSP_1.0.1_iMX6SX/rtos/FreeRTOS/Source/croutine.c.obj
 .bss           0x0000000000000000        0x0 CMakeFiles/rpmsg_pingpong_freertos_example.dir/home/abhishek/udoo/udoo-neo_custom_linux/m4/FreeRTOS_BSP_1.0.1_iMX6SX/rtos/FreeRTOS/Source/croutine.c.obj
 .text.xCoRoutineCreate
                0x0000000000000000       0xc0 CMakeFiles/rpmsg_pingpong_freertos_example.dir/home/abhishek/udoo/udoo-neo_custom_linux/m4/FreeRTOS_BSP_1.0.1_iMX6SX/rtos/FreeRTOS/Source/croutine.c.obj
 .text.vCoRoutineAddToDelayedList
                0x0000000000000000       0x4c CMakeFiles/rpmsg_pingpong_freertos_example.dir/home/abhishek/udoo/udoo-neo_custom_linux/m4/FreeRTOS_BSP_1.0.1_iMX6SX/rtos/FreeRTOS/Source/croutine.c.obj
 .text.vCoRoutineSchedule
                0x0000000000000000      0x158 CMakeFiles/rpmsg_pingpong_freertos_example.dir/home/abhishek/udoo/udoo-neo_custom_linux/m4/FreeRTOS_BSP_1.0.1_iMX6SX/rtos/FreeRTOS/Source/croutine.c.obj
 .text.xCoRoutineRemoveFromEventList
                0x0000000000000000       0x34 CMakeFiles/rpmsg_pingpong_freertos_example.dir/home/abhishek/udoo/udoo-neo_custom_linux/m4/FreeRTOS_BSP_1.0.1_iMX6SX/rtos/FreeRTOS/Source/croutine.c.obj
 .bss.pxCurrentCoRoutine
                0x0000000000000000        0x4 CMakeFiles/rpmsg_pingpong_freertos_example.dir/home/abhishek/udoo/udoo-neo_custom_linux/m4/FreeRTOS_BSP_1.0.1_iMX6SX/rtos/FreeRTOS/Source/croutine.c.obj
 .bss.pxDelayedCoRoutineList
                0x0000000000000000        0x4 CMakeFiles/rpmsg_pingpong_freertos_example.dir/home/abhishek/udoo/udoo-neo_custom_linux/m4/FreeRTOS_BSP_1.0.1_iMX6SX/rtos/FreeRTOS/Source/croutine.c.obj
 .bss.pxOverflowDelayedCoRoutineList
                0x0000000000000000        0x4 CMakeFiles/rpmsg_pingpong_freertos_example.dir/home/abhishek/udoo/udoo-neo_custom_linux/m4/FreeRTOS_BSP_1.0.1_iMX6SX/rtos/FreeRTOS/Source/croutine.c.obj
 .bss.pxReadyCoRoutineLists
                0x0000000000000000       0x28 CMakeFiles/rpmsg_pingpong_freertos_example.dir/home/abhishek/udoo/udoo-neo_custom_linux/m4/FreeRTOS_BSP_1.0.1_iMX6SX/rtos/FreeRTOS/Source/croutine.c.obj
 .bss.uxTopCoRoutineReadyPriority
                0x0000000000000000        0x4 CMakeFiles/rpmsg_pingpong_freertos_example.dir/home/abhishek/udoo/udoo-neo_custom_linux/m4/FreeRTOS_BSP_1.0.1_iMX6SX/rtos/FreeRTOS/Source/croutine.c.obj
 .bss.xCoRoutineTickCount
                0x0000000000000000        0x4 CMakeFiles/rpmsg_pingpong_freertos_example.dir/home/abhishek/udoo/udoo-neo_custom_linux/m4/FreeRTOS_BSP_1.0.1_iMX6SX/rtos/FreeRTOS/Source/croutine.c.obj
 .bss.xDelayedCoRoutineList1
                0x0000000000000000       0x14 CMakeFiles/rpmsg_pingpong_freertos_example.dir/home/abhishek/udoo/udoo-neo_custom_linux/m4/FreeRTOS_BSP_1.0.1_iMX6SX/rtos/FreeRTOS/Source/croutine.c.obj
 .bss.xDelayedCoRoutineList2
                0x0000000000000000       0x14 CMakeFiles/rpmsg_pingpong_freertos_example.dir/home/abhishek/udoo/udoo-neo_custom_linux/m4/FreeRTOS_BSP_1.0.1_iMX6SX/rtos/FreeRTOS/Source/croutine.c.obj
 .bss.xLastTickCount
                0x0000000000000000        0x4 CMakeFiles/rpmsg_pingpong_freertos_example.dir/home/abhishek/udoo/udoo-neo_custom_linux/m4/FreeRTOS_BSP_1.0.1_iMX6SX/rtos/FreeRTOS/Source/croutine.c.obj
 .bss.xPassedTicks
                0x0000000000000000        0x4 CMakeFiles/rpmsg_pingpong_freertos_example.dir/home/abhishek/udoo/udoo-neo_custom_linux/m4/FreeRTOS_BSP_1.0.1_iMX6SX/rtos/FreeRTOS/Source/croutine.c.obj
 .bss.xPendingReadyCoRoutineList
                0x0000000000000000       0x14 CMakeFiles/rpmsg_pingpong_freertos_example.dir/home/abhishek/udoo/udoo-neo_custom_linux/m4/FreeRTOS_BSP_1.0.1_iMX6SX/rtos/FreeRTOS/Source/croutine.c.obj
 .comment       0x0000000000000000       0x80 CMakeFiles/rpmsg_pingpong_freertos_example.dir/home/abhishek/udoo/udoo-neo_custom_linux/m4/FreeRTOS_BSP_1.0.1_iMX6SX/rtos/FreeRTOS/Source/croutine.c.obj
 .ARM.attributes
                0x0000000000000000       0x39 CMakeFiles/rpmsg_pingpong_freertos_example.dir/home/abhishek/udoo/udoo-neo_custom_linux/m4/FreeRTOS_BSP_1.0.1_iMX6SX/rtos/FreeRTOS/Source/croutine.c.obj
 .text          0x0000000000000000        0x0 CMakeFiles/rpmsg_pingpong_freertos_example.dir/home/abhishek/udoo/udoo-neo_custom_linux/m4/FreeRTOS_BSP_1.0.1_iMX6SX/rtos/FreeRTOS/Source/event_groups.c.obj
 .data          0x0000000000000000        0x0 CMakeFiles/rpmsg_pingpong_freertos_example.dir/home/abhishek/udoo/udoo-neo_custom_linux/m4/FreeRTOS_BSP_1.0.1_iMX6SX/rtos/FreeRTOS/Source/event_groups.c.obj
 .bss           0x0000000000000000        0x0 CMakeFiles/rpmsg_pingpong_freertos_example.dir/home/abhishek/udoo/udoo-neo_custom_linux/m4/FreeRTOS_BSP_1.0.1_iMX6SX/rtos/FreeRTOS/Source/event_groups.c.obj
 .text.xEventGroupCreate
                0x0000000000000000       0x1a CMakeFiles/rpmsg_pingpong_freertos_example.dir/home/abhishek/udoo/udoo-neo_custom_linux/m4/FreeRTOS_BSP_1.0.1_iMX6SX/rtos/FreeRTOS/Source/event_groups.c.obj
 .text.xEventGroupWaitBits
                0x0000000000000000       0xbe CMakeFiles/rpmsg_pingpong_freertos_example.dir/home/abhishek/udoo/udoo-neo_custom_linux/m4/FreeRTOS_BSP_1.0.1_iMX6SX/rtos/FreeRTOS/Source/event_groups.c.obj
 .text.xEventGroupClearBits
                0x0000000000000000       0x26 CMakeFiles/rpmsg_pingpong_freertos_example.dir/home/abhishek/udoo/udoo-neo_custom_linux/m4/FreeRTOS_BSP_1.0.1_iMX6SX/rtos/FreeRTOS/Source/event_groups.c.obj
 .text.xEventGroupClearBitsFromISR
                0x0000000000000000       0x26 CMakeFiles/rpmsg_pingpong_freertos_example.dir/home/abhishek/udoo/udoo-neo_custom_linux/m4/FreeRTOS_BSP_1.0.1_iMX6SX/rtos/FreeRTOS/Source/event_groups.c.obj
 .text.xEventGroupSetBits
                0x0000000000000000       0x66 CMakeFiles/rpmsg_pingpong_freertos_example.dir/home/abhishek/udoo/udoo-neo_custom_linux/m4/FreeRTOS_BSP_1.0.1_iMX6SX/rtos/FreeRTOS/Source/event_groups.c.obj
 .text.xEventGroupSync
                0x0000000000000000       0x8c CMakeFiles/rpmsg_pingpong_freertos_example.dir/home/abhishek/udoo/udoo-neo_custom_linux/m4/FreeRTOS_BSP_1.0.1_iMX6SX/rtos/FreeRTOS/Source/event_groups.c.obj
 .text.vEventGroupDelete
                0x0000000000000000       0x34 CMakeFiles/rpmsg_pingpong_freertos_example.dir/home/abhishek/udoo/udoo-neo_custom_linux/m4/FreeRTOS_BSP_1.0.1_iMX6SX/rtos/FreeRTOS/Source/event_groups.c.obj
 .text.vEventGroupSetBitsCallback
                0x0000000000000000        0x4 CMakeFiles/rpmsg_pingpong_freertos_example.dir/home/abhishek/udoo/udoo-neo_custom_linux/m4/FreeRTOS_BSP_1.0.1_iMX6SX/rtos/FreeRTOS/Source/event_groups.c.obj
 .comment       0x0000000000000000       0x80 CMakeFiles/rpmsg_pingpong_freertos_example.dir/home/abhishek/udoo/udoo-neo_custom_linux/m4/FreeRTOS_BSP_1.0.1_iMX6SX/rtos/FreeRTOS/Source/event_groups.c.obj
 .ARM.attributes
                0x0000000000000000       0x39 CMakeFiles/rpmsg_pingpong_freertos_example.dir/home/abhishek/udoo/udoo-neo_custom_linux/m4/FreeRTOS_BSP_1.0.1_iMX6SX/rtos/FreeRTOS/Source/event_groups.c.obj
 .text          0x0000000000000000        0x0 CMakeFiles/rpmsg_pingpong_freertos_example.dir/home/abhishek/udoo/udoo-neo_custom_linux/m4/FreeRTOS_BSP_1.0.1_iMX6SX/rtos/FreeRTOS/Source/list.c.obj
 .data          0x0000000000000000        0x0 CMakeFiles/rpmsg_pingpong_freertos_example.dir/home/abhishek/udoo/udoo-neo_custom_linux/m4/FreeRTOS_BSP_1.0.1_iMX6SX/rtos/FreeRTOS/Source/list.c.obj
 .bss           0x0000000000000000        0x0 CMakeFiles/rpmsg_pingpong_freertos_example.dir/home/abhishek/udoo/udoo-neo_custom_linux/m4/FreeRTOS_BSP_1.0.1_iMX6SX/rtos/FreeRTOS/Source/list.c.obj
 .text          0x0000000000000000        0x0 CMakeFiles/rpmsg_pingpong_freertos_example.dir/home/abhishek/udoo/udoo-neo_custom_linux/m4/FreeRTOS_BSP_1.0.1_iMX6SX/rtos/FreeRTOS/Source/queue.c.obj
 .data          0x0000000000000000        0x0 CMakeFiles/rpmsg_pingpong_freertos_example.dir/home/abhishek/udoo/udoo-neo_custom_linux/m4/FreeRTOS_BSP_1.0.1_iMX6SX/rtos/FreeRTOS/Source/queue.c.obj
 .bss           0x0000000000000000        0x0 CMakeFiles/rpmsg_pingpong_freertos_example.dir/home/abhishek/udoo/udoo-neo_custom_linux/m4/FreeRTOS_BSP_1.0.1_iMX6SX/rtos/FreeRTOS/Source/queue.c.obj
 .text.xQueuePeekFromISR
                0x0000000000000000       0x44 CMakeFiles/rpmsg_pingpong_freertos_example.dir/home/abhishek/udoo/udoo-neo_custom_linux/m4/FreeRTOS_BSP_1.0.1_iMX6SX/rtos/FreeRTOS/Source/queue.c.obj
 .text.uxQueueMessagesWaiting
                0x0000000000000000       0x1a CMakeFiles/rpmsg_pingpong_freertos_example.dir/home/abhishek/udoo/udoo-neo_custom_linux/m4/FreeRTOS_BSP_1.0.1_iMX6SX/rtos/FreeRTOS/Source/queue.c.obj
 .text.uxQueueSpacesAvailable
                0x0000000000000000       0x1e CMakeFiles/rpmsg_pingpong_freertos_example.dir/home/abhishek/udoo/udoo-neo_custom_linux/m4/FreeRTOS_BSP_1.0.1_iMX6SX/rtos/FreeRTOS/Source/queue.c.obj
 .text.uxQueueMessagesWaitingFromISR
                0x0000000000000000        0xe CMakeFiles/rpmsg_pingpong_freertos_example.dir/home/abhishek/udoo/udoo-neo_custom_linux/m4/FreeRTOS_BSP_1.0.1_iMX6SX/rtos/FreeRTOS/Source/queue.c.obj
 .text.xQueueIsQueueEmptyFromISR
                0x0000000000000000       0x14 CMakeFiles/rpmsg_pingpong_freertos_example.dir/home/abhishek/udoo/udoo-neo_custom_linux/m4/FreeRTOS_BSP_1.0.1_iMX6SX/rtos/FreeRTOS/Source/queue.c.obj
 .text.xQueueIsQueueFullFromISR
                0x0000000000000000       0x16 CMakeFiles/rpmsg_pingpong_freertos_example.dir/home/abhishek/udoo/udoo-neo_custom_linux/m4/FreeRTOS_BSP_1.0.1_iMX6SX/rtos/FreeRTOS/Source/queue.c.obj
 .text.vQueueAddToRegistry
                0x0000000000000000       0x24 CMakeFiles/rpmsg_pingpong_freertos_example.dir/home/abhishek/udoo/udoo-neo_custom_linux/m4/FreeRTOS_BSP_1.0.1_iMX6SX/rtos/FreeRTOS/Source/queue.c.obj
 .text          0x0000000000000000        0x0 CMakeFiles/rpmsg_pingpong_freertos_example.dir/home/abhishek/udoo/udoo-neo_custom_linux/m4/FreeRTOS_BSP_1.0.1_iMX6SX/rtos/FreeRTOS/Source/tasks.c.obj
 .data          0x0000000000000000        0x0 CMakeFiles/rpmsg_pingpong_freertos_example.dir/home/abhishek/udoo/udoo-neo_custom_linux/m4/FreeRTOS_BSP_1.0.1_iMX6SX/rtos/FreeRTOS/Source/tasks.c.obj
 .bss           0x0000000000000000        0x0 CMakeFiles/rpmsg_pingpong_freertos_example.dir/home/abhishek/udoo/udoo-neo_custom_linux/m4/FreeRTOS_BSP_1.0.1_iMX6SX/rtos/FreeRTOS/Source/tasks.c.obj
 .text.vTaskResume
                0x0000000000000000       0x78 CMakeFiles/rpmsg_pingpong_freertos_example.dir/home/abhishek/udoo/udoo-neo_custom_linux/m4/FreeRTOS_BSP_1.0.1_iMX6SX/rtos/FreeRTOS/Source/tasks.c.obj
 .text.xTaskResumeFromISR
                0x0000000000000000       0x8c CMakeFiles/rpmsg_pingpong_freertos_example.dir/home/abhishek/udoo/udoo-neo_custom_linux/m4/FreeRTOS_BSP_1.0.1_iMX6SX/rtos/FreeRTOS/Source/tasks.c.obj
 .text.vTaskEndScheduler
                0x0000000000000000       0x18 CMakeFiles/rpmsg_pingpong_freertos_example.dir/home/abhishek/udoo/udoo-neo_custom_linux/m4/FreeRTOS_BSP_1.0.1_iMX6SX/rtos/FreeRTOS/Source/tasks.c.obj
 .text.xTaskGetTickCount
                0x0000000000000000       0x18 CMakeFiles/rpmsg_pingpong_freertos_example.dir/home/abhishek/udoo/udoo-neo_custom_linux/m4/FreeRTOS_BSP_1.0.1_iMX6SX/rtos/FreeRTOS/Source/tasks.c.obj
 .text.xTaskGetTickCountFromISR
                0x0000000000000000       0x1c CMakeFiles/rpmsg_pingpong_freertos_example.dir/home/abhishek/udoo/udoo-neo_custom_linux/m4/FreeRTOS_BSP_1.0.1_iMX6SX/rtos/FreeRTOS/Source/tasks.c.obj
 .text.uxTaskGetNumberOfTasks
                0x0000000000000000        0xc CMakeFiles/rpmsg_pingpong_freertos_example.dir/home/abhishek/udoo/udoo-neo_custom_linux/m4/FreeRTOS_BSP_1.0.1_iMX6SX/rtos/FreeRTOS/Source/tasks.c.obj
 .text.vTaskSuspend
                0x0000000000000000       0x88 CMakeFiles/rpmsg_pingpong_freertos_example.dir/home/abhishek/udoo/udoo-neo_custom_linux/m4/FreeRTOS_BSP_1.0.1_iMX6SX/rtos/FreeRTOS/Source/tasks.c.obj
 .text.vTaskPlaceOnUnorderedEventList
                0x0000000000000000       0x64 CMakeFiles/rpmsg_pingpong_freertos_example.dir/home/abhishek/udoo/udoo-neo_custom_linux/m4/FreeRTOS_BSP_1.0.1_iMX6SX/rtos/FreeRTOS/Source/tasks.c.obj
 .text.xTaskRemoveFromUnorderedEventList
                0x0000000000000000       0x70 CMakeFiles/rpmsg_pingpong_freertos_example.dir/home/abhishek/udoo/udoo-neo_custom_linux/m4/FreeRTOS_BSP_1.0.1_iMX6SX/rtos/FreeRTOS/Source/tasks.c.obj
 .text.uxTaskResetEventItemValue
                0x0000000000000000       0x18 CMakeFiles/rpmsg_pingpong_freertos_example.dir/home/abhishek/udoo/udoo-neo_custom_linux/m4/FreeRTOS_BSP_1.0.1_iMX6SX/rtos/FreeRTOS/Source/tasks.c.obj
 .text          0x0000000000000000        0x0 CMakeFiles/rpmsg_pingpong_freertos_example.dir/home/abhishek/udoo/udoo-neo_custom_linux/m4/FreeRTOS_BSP_1.0.1_iMX6SX/rtos/FreeRTOS/Source/timers.c.obj
 .data          0x0000000000000000        0x0 CMakeFiles/rpmsg_pingpong_freertos_example.dir/home/abhishek/udoo/udoo-neo_custom_linux/m4/FreeRTOS_BSP_1.0.1_iMX6SX/rtos/FreeRTOS/Source/timers.c.obj
 .bss           0x0000000000000000        0x0 CMakeFiles/rpmsg_pingpong_freertos_example.dir/home/abhishek/udoo/udoo-neo_custom_linux/m4/FreeRTOS_BSP_1.0.1_iMX6SX/rtos/FreeRTOS/Source/timers.c.obj
 .comment       0x0000000000000000       0x80 CMakeFiles/rpmsg_pingpong_freertos_example.dir/home/abhishek/udoo/udoo-neo_custom_linux/m4/FreeRTOS_BSP_1.0.1_iMX6SX/rtos/FreeRTOS/Source/timers.c.obj
 .ARM.attributes
                0x0000000000000000       0x39 CMakeFiles/rpmsg_pingpong_freertos_example.dir/home/abhishek/udoo/udoo-neo_custom_linux/m4/FreeRTOS_BSP_1.0.1_iMX6SX/rtos/FreeRTOS/Source/timers.c.obj
 .text          0x0000000000000000        0x0 CMakeFiles/rpmsg_pingpong_freertos_example.dir/home/abhishek/udoo/udoo-neo_custom_linux/m4/FreeRTOS_BSP_1.0.1_iMX6SX/platform/drivers/src/ccm_analog_imx6sx.c.obj
 .data          0x0000000000000000        0x0 CMakeFiles/rpmsg_pingpong_freertos_example.dir/home/abhishek/udoo/udoo-neo_custom_linux/m4/FreeRTOS_BSP_1.0.1_iMX6SX/platform/drivers/src/ccm_analog_imx6sx.c.obj
 .bss           0x0000000000000000        0x0 CMakeFiles/rpmsg_pingpong_freertos_example.dir/home/abhishek/udoo/udoo-neo_custom_linux/m4/FreeRTOS_BSP_1.0.1_iMX6SX/platform/drivers/src/ccm_analog_imx6sx.c.obj
 .text.CCM_ANALOG_PowerUpPll
                0x0000000000000000       0x20 CMakeFiles/rpmsg_pingpong_freertos_example.dir/home/abhishek/udoo/udoo-neo_custom_linux/m4/FreeRTOS_BSP_1.0.1_iMX6SX/platform/drivers/src/ccm_analog_imx6sx.c.obj
 .text.CCM_ANALOG_PowerDownPll
                0x0000000000000000       0x20 CMakeFiles/rpmsg_pingpong_freertos_example.dir/home/abhishek/udoo/udoo-neo_custom_linux/m4/FreeRTOS_BSP_1.0.1_iMX6SX/platform/drivers/src/ccm_analog_imx6sx.c.obj
 .text.CCM_ANALOG_SetPllBypass
                0x0000000000000000       0x12 CMakeFiles/rpmsg_pingpong_freertos_example.dir/home/abhishek/udoo/udoo-neo_custom_linux/m4/FreeRTOS_BSP_1.0.1_iMX6SX/platform/drivers/src/ccm_analog_imx6sx.c.obj
 .text.CCM_ANALOG_GetPllFreq
                0x0000000000000000       0xd8 CMakeFiles/rpmsg_pingpong_freertos_example.dir/home/abhishek/udoo/udoo-neo_custom_linux/m4/FreeRTOS_BSP_1.0.1_iMX6SX/platform/drivers/src/ccm_analog_imx6sx.c.obj
 .text.CCM_ANALOG_GetPfdFreq
                0x0000000000000000       0x70 CMakeFiles/rpmsg_pingpong_freertos_example.dir/home/abhishek/udoo/udoo-neo_custom_linux/m4/FreeRTOS_BSP_1.0.1_iMX6SX/platform/drivers/src/ccm_analog_imx6sx.c.obj
 .rodata.CCM_ANALOG_GetPfdFreq.str1.1
                0x0000000000000000       0xe1 CMakeFiles/rpmsg_pingpong_freertos_example.dir/home/abhishek/udoo/udoo-neo_custom_linux/m4/FreeRTOS_BSP_1.0.1_iMX6SX/platform/drivers/src/ccm_analog_imx6sx.c.obj
 .rodata.__func__.8822
                0x0000000000000000       0x16 CMakeFiles/rpmsg_pingpong_freertos_example.dir/home/abhishek/udoo/udoo-neo_custom_linux/m4/FreeRTOS_BSP_1.0.1_iMX6SX/platform/drivers/src/ccm_analog_imx6sx.c.obj
 .comment       0x0000000000000000       0x80 CMakeFiles/rpmsg_pingpong_freertos_example.dir/home/abhishek/udoo/udoo-neo_custom_linux/m4/FreeRTOS_BSP_1.0.1_iMX6SX/platform/drivers/src/ccm_analog_imx6sx.c.obj
 .ARM.attributes
                0x0000000000000000       0x39 CMakeFiles/rpmsg_pingpong_freertos_example.dir/home/abhishek/udoo/udoo-neo_custom_linux/m4/FreeRTOS_BSP_1.0.1_iMX6SX/platform/drivers/src/ccm_analog_imx6sx.c.obj
 .text          0x0000000000000000        0x0 CMakeFiles/rpmsg_pingpong_freertos_example.dir/home/abhishek/udoo/udoo-neo_custom_linux/m4/FreeRTOS_BSP_1.0.1_iMX6SX/platform/drivers/src/ccm_imx6sx.c.obj
 .data          0x0000000000000000        0x0 CMakeFiles/rpmsg_pingpong_freertos_example.dir/home/abhishek/udoo/udoo-neo_custom_linux/m4/FreeRTOS_BSP_1.0.1_iMX6SX/platform/drivers/src/ccm_imx6sx.c.obj
 .bss           0x0000000000000000        0x0 CMakeFiles/rpmsg_pingpong_freertos_example.dir/home/abhishek/udoo/udoo-neo_custom_linux/m4/FreeRTOS_BSP_1.0.1_iMX6SX/platform/drivers/src/ccm_imx6sx.c.obj
 .text.CCM_SetClockEnableSignalOverrided
                0x0000000000000000       0x14 CMakeFiles/rpmsg_pingpong_freertos_example.dir/home/abhishek/udoo/udoo-neo_custom_linux/m4/FreeRTOS_BSP_1.0.1_iMX6SX/platform/drivers/src/ccm_imx6sx.c.obj
 .text.CCM_SetMmdcHandshakeMask
                0x0000000000000000       0x12 CMakeFiles/rpmsg_pingpong_freertos_example.dir/home/abhishek/udoo/udoo-neo_custom_linux/m4/FreeRTOS_BSP_1.0.1_iMX6SX/platform/drivers/src/ccm_imx6sx.c.obj
 .comment       0x0000000000000000       0x80 CMakeFiles/rpmsg_pingpong_freertos_example.dir/home/abhishek/udoo/udoo-neo_custom_linux/m4/FreeRTOS_BSP_1.0.1_iMX6SX/platform/drivers/src/ccm_imx6sx.c.obj
 .ARM.attributes
                0x0000000000000000       0x39 CMakeFiles/rpmsg_pingpong_freertos_example.dir/home/abhishek/udoo/udoo-neo_custom_linux/m4/FreeRTOS_BSP_1.0.1_iMX6SX/platform/drivers/src/ccm_imx6sx.c.obj
 .text          0x0000000000000000        0x0 CMakeFiles/rpmsg_pingpong_freertos_example.dir/home/abhishek/udoo/udoo-neo_custom_linux/m4/FreeRTOS_BSP_1.0.1_iMX6SX/platform/drivers/src/lmem.c.obj
 .data          0x0000000000000000        0x0 CMakeFiles/rpmsg_pingpong_freertos_example.dir/home/abhishek/udoo/udoo-neo_custom_linux/m4/FreeRTOS_BSP_1.0.1_iMX6SX/platform/drivers/src/lmem.c.obj
 .bss           0x0000000000000000        0x0 CMakeFiles/rpmsg_pingpong_freertos_example.dir/home/abhishek/udoo/udoo-neo_custom_linux/m4/FreeRTOS_BSP_1.0.1_iMX6SX/platform/drivers/src/lmem.c.obj
 .text.LMEM_EnableSystemCache
                0x0000000000000000       0x2c CMakeFiles/rpmsg_pingpong_freertos_example.dir/home/abhishek/udoo/udoo-neo_custom_linux/m4/FreeRTOS_BSP_1.0.1_iMX6SX/platform/drivers/src/lmem.c.obj
 .text.LMEM_DisableSystemCache
                0x0000000000000000       0x10 CMakeFiles/rpmsg_pingpong_freertos_example.dir/home/abhishek/udoo/udoo-neo_custom_linux/m4/FreeRTOS_BSP_1.0.1_iMX6SX/platform/drivers/src/lmem.c.obj
 .text.LMEM_FlushSystemCache
                0x0000000000000000       0x22 CMakeFiles/rpmsg_pingpong_freertos_example.dir/home/abhishek/udoo/udoo-neo_custom_linux/m4/FreeRTOS_BSP_1.0.1_iMX6SX/platform/drivers/src/lmem.c.obj
 .text.LMEM_FlushSystemCacheLines
                0x0000000000000000       0x48 CMakeFiles/rpmsg_pingpong_freertos_example.dir/home/abhishek/udoo/udoo-neo_custom_linux/m4/FreeRTOS_BSP_1.0.1_iMX6SX/platform/drivers/src/lmem.c.obj
 .text.LMEM_InvalidateSystemCache
                0x0000000000000000       0x2a CMakeFiles/rpmsg_pingpong_freertos_example.dir/home/abhishek/udoo/udoo-neo_custom_linux/m4/FreeRTOS_BSP_1.0.1_iMX6SX/platform/drivers/src/lmem.c.obj
 .text.LMEM_InvalidateSystemCacheLines
                0x0000000000000000       0x50 CMakeFiles/rpmsg_pingpong_freertos_example.dir/home/abhishek/udoo/udoo-neo_custom_linux/m4/FreeRTOS_BSP_1.0.1_iMX6SX/platform/drivers/src/lmem.c.obj
 .text.LMEM_EnableCodeCache
                0x0000000000000000       0x22 CMakeFiles/rpmsg_pingpong_freertos_example.dir/home/abhishek/udoo/udoo-neo_custom_linux/m4/FreeRTOS_BSP_1.0.1_iMX6SX/platform/drivers/src/lmem.c.obj
 .text.LMEM_DisableCodeCache
                0x0000000000000000        0xe CMakeFiles/rpmsg_pingpong_freertos_example.dir/home/abhishek/udoo/udoo-neo_custom_linux/m4/FreeRTOS_BSP_1.0.1_iMX6SX/platform/drivers/src/lmem.c.obj
 .text.LMEM_FlushCodeCache
                0x0000000000000000       0x18 CMakeFiles/rpmsg_pingpong_freertos_example.dir/home/abhishek/udoo/udoo-neo_custom_linux/m4/FreeRTOS_BSP_1.0.1_iMX6SX/platform/drivers/src/lmem.c.obj
 .text.LMEM_FlushCodeCacheLines
                0x0000000000000000       0x40 CMakeFiles/rpmsg_pingpong_freertos_example.dir/home/abhishek/udoo/udoo-neo_custom_linux/m4/FreeRTOS_BSP_1.0.1_iMX6SX/platform/drivers/src/lmem.c.obj
 .text.LMEM_InvalidateCodeCache
                0x0000000000000000       0x20 CMakeFiles/rpmsg_pingpong_freertos_example.dir/home/abhishek/udoo/udoo-neo_custom_linux/m4/FreeRTOS_BSP_1.0.1_iMX6SX/platform/drivers/src/lmem.c.obj
 .text.LMEM_InvalidateCodeCacheLines
                0x0000000000000000       0x4c CMakeFiles/rpmsg_pingpong_freertos_example.dir/home/abhishek/udoo/udoo-neo_custom_linux/m4/FreeRTOS_BSP_1.0.1_iMX6SX/platform/drivers/src/lmem.c.obj
 .rodata.LMEM_FlushCodeCacheLines.str1.1
                0x0000000000000000       0x1f CMakeFiles/rpmsg_pingpong_freertos_example.dir/home/abhishek/udoo/udoo-neo_custom_linux/m4/FreeRTOS_BSP_1.0.1_iMX6SX/platform/drivers/src/lmem.c.obj
 .rodata.LMEM_FlushSystemCacheLines.str1.1
                0x0000000000000000       0x83 CMakeFiles/rpmsg_pingpong_freertos_example.dir/home/abhishek/udoo/udoo-neo_custom_linux/m4/FreeRTOS_BSP_1.0.1_iMX6SX/platform/drivers/src/lmem.c.obj
 .rodata.__func__.8737
                0x0000000000000000       0x1a CMakeFiles/rpmsg_pingpong_freertos_example.dir/home/abhishek/udoo/udoo-neo_custom_linux/m4/FreeRTOS_BSP_1.0.1_iMX6SX/platform/drivers/src/lmem.c.obj
 .rodata.__func__.8759
                0x0000000000000000       0x1f CMakeFiles/rpmsg_pingpong_freertos_example.dir/home/abhishek/udoo/udoo-neo_custom_linux/m4/FreeRTOS_BSP_1.0.1_iMX6SX/platform/drivers/src/lmem.c.obj
 .rodata.__func__.8790
                0x0000000000000000       0x18 CMakeFiles/rpmsg_pingpong_freertos_example.dir/home/abhishek/udoo/udoo-neo_custom_linux/m4/FreeRTOS_BSP_1.0.1_iMX6SX/platform/drivers/src/lmem.c.obj
 .rodata.__func__.8812
                0x0000000000000000       0x1d CMakeFiles/rpmsg_pingpong_freertos_example.dir/home/abhishek/udoo/udoo-neo_custom_linux/m4/FreeRTOS_BSP_1.0.1_iMX6SX/platform/drivers/src/lmem.c.obj
 .comment       0x0000000000000000       0x80 CMakeFiles/rpmsg_pingpong_freertos_example.dir/home/abhishek/udoo/udoo-neo_custom_linux/m4/FreeRTOS_BSP_1.0.1_iMX6SX/platform/drivers/src/lmem.c.obj
 .ARM.attributes
                0x0000000000000000       0x39 CMakeFiles/rpmsg_pingpong_freertos_example.dir/home/abhishek/udoo/udoo-neo_custom_linux/m4/FreeRTOS_BSP_1.0.1_iMX6SX/platform/drivers/src/lmem.c.obj
 .text          0x0000000000000000        0x0 CMakeFiles/rpmsg_pingpong_freertos_example.dir/home/abhishek/udoo/udoo-neo_custom_linux/m4/FreeRTOS_BSP_1.0.1_iMX6SX/platform/drivers/src/rdc.c.obj
 .data          0x0000000000000000        0x0 CMakeFiles/rpmsg_pingpong_freertos_example.dir/home/abhishek/udoo/udoo-neo_custom_linux/m4/FreeRTOS_BSP_1.0.1_iMX6SX/platform/drivers/src/rdc.c.obj
 .bss           0x0000000000000000        0x0 CMakeFiles/rpmsg_pingpong_freertos_example.dir/home/abhishek/udoo/udoo-neo_custom_linux/m4/FreeRTOS_BSP_1.0.1_iMX6SX/platform/drivers/src/rdc.c.obj
 .text.RDC_SetMrAccess
                0x0000000000000000       0x36 CMakeFiles/rpmsg_pingpong_freertos_example.dir/home/abhishek/udoo/udoo-neo_custom_linux/m4/FreeRTOS_BSP_1.0.1_iMX6SX/platform/drivers/src/rdc.c.obj
 .text.RDC_GetMrAccess
                0x0000000000000000       0x28 CMakeFiles/rpmsg_pingpong_freertos_example.dir/home/abhishek/udoo/udoo-neo_custom_linux/m4/FreeRTOS_BSP_1.0.1_iMX6SX/platform/drivers/src/rdc.c.obj
 .text.RDC_GetViolationStatus
                0x0000000000000000       0x1e CMakeFiles/rpmsg_pingpong_freertos_example.dir/home/abhishek/udoo/udoo-neo_custom_linux/m4/FreeRTOS_BSP_1.0.1_iMX6SX/platform/drivers/src/rdc.c.obj
 .comment       0x0000000000000000       0x80 CMakeFiles/rpmsg_pingpong_freertos_example.dir/home/abhishek/udoo/udoo-neo_custom_linux/m4/FreeRTOS_BSP_1.0.1_iMX6SX/platform/drivers/src/rdc.c.obj
 .ARM.attributes
                0x0000000000000000       0x39 CMakeFiles/rpmsg_pingpong_freertos_example.dir/home/abhishek/udoo/udoo-neo_custom_linux/m4/FreeRTOS_BSP_1.0.1_iMX6SX/platform/drivers/src/rdc.c.obj
 .text          0x0000000000000000        0x0 CMakeFiles/rpmsg_pingpong_freertos_example.dir/home/abhishek/udoo/udoo-neo_custom_linux/m4/FreeRTOS_BSP_1.0.1_iMX6SX/platform/drivers/src/wdog_imx.c.obj
 .data          0x0000000000000000        0x0 CMakeFiles/rpmsg_pingpong_freertos_example.dir/home/abhishek/udoo/udoo-neo_custom_linux/m4/FreeRTOS_BSP_1.0.1_iMX6SX/platform/drivers/src/wdog_imx.c.obj
 .bss           0x0000000000000000        0x0 CMakeFiles/rpmsg_pingpong_freertos_example.dir/home/abhishek/udoo/udoo-neo_custom_linux/m4/FreeRTOS_BSP_1.0.1_iMX6SX/platform/drivers/src/wdog_imx.c.obj
 .text.WDOG_Enable
                0x0000000000000000       0x10 CMakeFiles/rpmsg_pingpong_freertos_example.dir/home/abhishek/udoo/udoo-neo_custom_linux/m4/FreeRTOS_BSP_1.0.1_iMX6SX/platform/drivers/src/wdog_imx.c.obj
 .text.WDOG_Reset
                0x0000000000000000       0x18 CMakeFiles/rpmsg_pingpong_freertos_example.dir/home/abhishek/udoo/udoo-neo_custom_linux/m4/FreeRTOS_BSP_1.0.1_iMX6SX/platform/drivers/src/wdog_imx.c.obj
 .text.WDOG_Refresh
                0x0000000000000000        0xe CMakeFiles/rpmsg_pingpong_freertos_example.dir/home/abhishek/udoo/udoo-neo_custom_linux/m4/FreeRTOS_BSP_1.0.1_iMX6SX/platform/drivers/src/wdog_imx.c.obj
 .comment       0x0000000000000000       0x80 CMakeFiles/rpmsg_pingpong_freertos_example.dir/home/abhishek/udoo/udoo-neo_custom_linux/m4/FreeRTOS_BSP_1.0.1_iMX6SX/platform/drivers/src/wdog_imx.c.obj
 .ARM.attributes
                0x0000000000000000       0x39 CMakeFiles/rpmsg_pingpong_freertos_example.dir/home/abhishek/udoo/udoo-neo_custom_linux/m4/FreeRTOS_BSP_1.0.1_iMX6SX/platform/drivers/src/wdog_imx.c.obj
 .text          0x0000000000000000        0x0 CMakeFiles/rpmsg_pingpong_freertos_example.dir/home/abhishek/udoo/udoo-neo_custom_linux/m4/FreeRTOS_BSP_1.0.1_iMX6SX/platform/utilities/src/debug_console_imx.c.obj
 .data          0x0000000000000000        0x0 CMakeFiles/rpmsg_pingpong_freertos_example.dir/home/abhishek/udoo/udoo-neo_custom_linux/m4/FreeRTOS_BSP_1.0.1_iMX6SX/platform/utilities/src/debug_console_imx.c.obj
 .bss           0x0000000000000000        0x0 CMakeFiles/rpmsg_pingpong_freertos_example.dir/home/abhishek/udoo/udoo-neo_custom_linux/m4/FreeRTOS_BSP_1.0.1_iMX6SX/platform/utilities/src/debug_console_imx.c.obj
 .text.DbgConsole_DeInit
                0x0000000000000000       0x28 CMakeFiles/rpmsg_pingpong_freertos_example.dir/home/abhishek/udoo/udoo-neo_custom_linux/m4/FreeRTOS_BSP_1.0.1_iMX6SX/platform/utilities/src/debug_console_imx.c.obj
 .text.debug_putchar
                0x0000000000000000       0x1c CMakeFiles/rpmsg_pingpong_freertos_example.dir/home/abhishek/udoo/udoo-neo_custom_linux/m4/FreeRTOS_BSP_1.0.1_iMX6SX/platform/utilities/src/debug_console_imx.c.obj
 .text.debug_getchar
                0x0000000000000000       0x28 CMakeFiles/rpmsg_pingpong_freertos_example.dir/home/abhishek/udoo/udoo-neo_custom_linux/m4/FreeRTOS_BSP_1.0.1_iMX6SX/platform/utilities/src/debug_console_imx.c.obj
 .text.debug_scanf
                0x0000000000000000       0x64 CMakeFiles/rpmsg_pingpong_freertos_example.dir/home/abhishek/udoo/udoo-neo_custom_linux/m4/FreeRTOS_BSP_1.0.1_iMX6SX/platform/utilities/src/debug_console_imx.c.obj
 .text          0x0000000000000000        0x0 CMakeFiles/rpmsg_pingpong_freertos_example.dir/home/abhishek/udoo/udoo-neo_custom_linux/m4/FreeRTOS_BSP_1.0.1_iMX6SX/platform/utilities/src/print_scan.c.obj
 .data          0x0000000000000000        0x0 CMakeFiles/rpmsg_pingpong_freertos_example.dir/home/abhishek/udoo/udoo-neo_custom_linux/m4/FreeRTOS_BSP_1.0.1_iMX6SX/platform/utilities/src/print_scan.c.obj
 .bss           0x0000000000000000        0x0 CMakeFiles/rpmsg_pingpong_freertos_example.dir/home/abhishek/udoo/udoo-neo_custom_linux/m4/FreeRTOS_BSP_1.0.1_iMX6SX/platform/utilities/src/print_scan.c.obj
 .text.scan_ignore_white_space
                0x0000000000000000       0x20 CMakeFiles/rpmsg_pingpong_freertos_example.dir/home/abhishek/udoo/udoo-neo_custom_linux/m4/FreeRTOS_BSP_1.0.1_iMX6SX/platform/utilities/src/print_scan.c.obj
 .text._sputc   0x0000000000000000        0xa CMakeFiles/rpmsg_pingpong_freertos_example.dir/home/abhishek/udoo/udoo-neo_custom_linux/m4/FreeRTOS_BSP_1.0.1_iMX6SX/platform/utilities/src/print_scan.c.obj
 .text.scan_prv
                0x0000000000000000      0x2e2 CMakeFiles/rpmsg_pingpong_freertos_example.dir/home/abhishek/udoo/udoo-neo_custom_linux/m4/FreeRTOS_BSP_1.0.1_iMX6SX/platform/utilities/src/print_scan.c.obj
 .text          0x0000000000000000        0x0 CMakeFiles/rpmsg_pingpong_freertos_example.dir/home/abhishek/udoo/udoo-neo_custom_linux/m4/FreeRTOS_BSP_1.0.1_iMX6SX/platform/devices/MCIMX6X/startup/system_MCIMX6X_M4.c.obj
 .data          0x0000000000000000        0x0 CMakeFiles/rpmsg_pingpong_freertos_example.dir/home/abhishek/udoo/udoo-neo_custom_linux/m4/FreeRTOS_BSP_1.0.1_iMX6SX/platform/devices/MCIMX6X/startup/system_MCIMX6X_M4.c.obj
 .bss           0x0000000000000000        0x0 CMakeFiles/rpmsg_pingpong_freertos_example.dir/home/abhishek/udoo/udoo-neo_custom_linux/m4/FreeRTOS_BSP_1.0.1_iMX6SX/platform/devices/MCIMX6X/startup/system_MCIMX6X_M4.c.obj
 .text.SystemCoreClockUpdate
                0x0000000000000000      0x120 CMakeFiles/rpmsg_pingpong_freertos_example.dir/home/abhishek/udoo/udoo-neo_custom_linux/m4/FreeRTOS_BSP_1.0.1_iMX6SX/platform/devices/MCIMX6X/startup/system_MCIMX6X_M4.c.obj
 .data.SystemCoreClock
                0x0000000000000000        0x4 CMakeFiles/rpmsg_pingpong_freertos_example.dir/home/abhishek/udoo/udoo-neo_custom_linux/m4/FreeRTOS_BSP_1.0.1_iMX6SX/platform/devices/MCIMX6X/startup/system_MCIMX6X_M4.c.obj
 .text          0x0000000000000000        0x0 CMakeFiles/rpmsg_pingpong_freertos_example.dir/home/abhishek/udoo/udoo-neo_custom_linux/m4/FreeRTOS_BSP_1.0.1_iMX6SX/examples/imx6sx_sdb_m4/pin_mux.c.obj
 .data          0x0000000000000000        0x0 CMakeFiles/rpmsg_pingpong_freertos_example.dir/home/abhishek/udoo/udoo-neo_custom_linux/m4/FreeRTOS_BSP_1.0.1_iMX6SX/examples/imx6sx_sdb_m4/pin_mux.c.obj
 .bss           0x0000000000000000        0x0 CMakeFiles/rpmsg_pingpong_freertos_example.dir/home/abhishek/udoo/udoo-neo_custom_linux/m4/FreeRTOS_BSP_1.0.1_iMX6SX/examples/imx6sx_sdb_m4/pin_mux.c.obj
 .text.configure_ecspi_pins
                0x0000000000000000       0x4c CMakeFiles/rpmsg_pingpong_freertos_example.dir/home/abhishek/udoo/udoo-neo_custom_linux/m4/FreeRTOS_BSP_1.0.1_iMX6SX/examples/imx6sx_sdb_m4/pin_mux.c.obj
 .text.configure_ecspi_slave_pins
                0x0000000000000000       0x48 CMakeFiles/rpmsg_pingpong_freertos_example.dir/home/abhishek/udoo/udoo-neo_custom_linux/m4/FreeRTOS_BSP_1.0.1_iMX6SX/examples/imx6sx_sdb_m4/pin_mux.c.obj
 .text.configure_i2c_pins
                0x0000000000000000       0xb0 CMakeFiles/rpmsg_pingpong_freertos_example.dir/home/abhishek/udoo/udoo-neo_custom_linux/m4/FreeRTOS_BSP_1.0.1_iMX6SX/examples/imx6sx_sdb_m4/pin_mux.c.obj
 .text.configure_flexcan_pins
                0x0000000000000000       0xa4 CMakeFiles/rpmsg_pingpong_freertos_example.dir/home/abhishek/udoo/udoo-neo_custom_linux/m4/FreeRTOS_BSP_1.0.1_iMX6SX/examples/imx6sx_sdb_m4/pin_mux.c.obj
 .text          0x0000000000000000        0x0 CMakeFiles/rpmsg_pingpong_freertos_example.dir/home/abhishek/udoo/udoo-neo_custom_linux/m4/FreeRTOS_BSP_1.0.1_iMX6SX/examples/imx6sx_sdb_m4/board.c.obj
 .data          0x0000000000000000        0x0 CMakeFiles/rpmsg_pingpong_freertos_example.dir/home/abhishek/udoo/udoo-neo_custom_linux/m4/FreeRTOS_BSP_1.0.1_iMX6SX/examples/imx6sx_sdb_m4/board.c.obj
 .bss           0x0000000000000000        0x0 CMakeFiles/rpmsg_pingpong_freertos_example.dir/home/abhishek/udoo/udoo-neo_custom_linux/m4/FreeRTOS_BSP_1.0.1_iMX6SX/examples/imx6sx_sdb_m4/board.c.obj
 .text          0x0000000000000000        0x0 CMakeFiles/rpmsg_pingpong_freertos_example.dir/home/abhishek/udoo/udoo-neo_custom_linux/m4/FreeRTOS_BSP_1.0.1_iMX6SX/examples/imx6sx_sdb_m4/clock_freq.c.obj
 .data          0x0000000000000000        0x0 CMakeFiles/rpmsg_pingpong_freertos_example.dir/home/abhishek/udoo/udoo-neo_custom_linux/m4/FreeRTOS_BSP_1.0.1_iMX6SX/examples/imx6sx_sdb_m4/clock_freq.c.obj
 .bss           0x0000000000000000        0x0 CMakeFiles/rpmsg_pingpong_freertos_example.dir/home/abhishek/udoo/udoo-neo_custom_linux/m4/FreeRTOS_BSP_1.0.1_iMX6SX/examples/imx6sx_sdb_m4/clock_freq.c.obj
 .text.get_epit_clock_freq
                0x0000000000000000       0xdc CMakeFiles/rpmsg_pingpong_freertos_example.dir/home/abhishek/udoo/udoo-neo_custom_linux/m4/FreeRTOS_BSP_1.0.1_iMX6SX/examples/imx6sx_sdb_m4/clock_freq.c.obj
 .text.get_i2c_clock_freq
                0x0000000000000000        0x4 CMakeFiles/rpmsg_pingpong_freertos_example.dir/home/abhishek/udoo/udoo-neo_custom_linux/m4/FreeRTOS_BSP_1.0.1_iMX6SX/examples/imx6sx_sdb_m4/clock_freq.c.obj
 .text.get_ecspi_clock_freq
                0x0000000000000000       0x54 CMakeFiles/rpmsg_pingpong_freertos_example.dir/home/abhishek/udoo/udoo-neo_custom_linux/m4/FreeRTOS_BSP_1.0.1_iMX6SX/examples/imx6sx_sdb_m4/clock_freq.c.obj
 .text.get_uart_clock_freq
                0x0000000000000000       0x54 CMakeFiles/rpmsg_pingpong_freertos_example.dir/home/abhishek/udoo/udoo-neo_custom_linux/m4/FreeRTOS_BSP_1.0.1_iMX6SX/examples/imx6sx_sdb_m4/clock_freq.c.obj
 .comment       0x0000000000000000       0x80 CMakeFiles/rpmsg_pingpong_freertos_example.dir/home/abhishek/udoo/udoo-neo_custom_linux/m4/FreeRTOS_BSP_1.0.1_iMX6SX/examples/imx6sx_sdb_m4/clock_freq.c.obj
 .ARM.attributes
                0x0000000000000000       0x39 CMakeFiles/rpmsg_pingpong_freertos_example.dir/home/abhishek/udoo/udoo-neo_custom_linux/m4/FreeRTOS_BSP_1.0.1_iMX6SX/examples/imx6sx_sdb_m4/clock_freq.c.obj
 .text          0x0000000000000000        0x0 CMakeFiles/rpmsg_pingpong_freertos_example.dir/home/abhishek/udoo/udoo-neo_custom_linux/m4/FreeRTOS_BSP_1.0.1_iMX6SX/examples/imx6sx_sdb_m4/demo_apps/rpmsg/pingpong_freertos/hardware_init.c.obj
 .data          0x0000000000000000        0x0 CMakeFiles/rpmsg_pingpong_freertos_example.dir/home/abhishek/udoo/udoo-neo_custom_linux/m4/FreeRTOS_BSP_1.0.1_iMX6SX/examples/imx6sx_sdb_m4/demo_apps/rpmsg/pingpong_freertos/hardware_init.c.obj
 .bss           0x0000000000000000        0x0 CMakeFiles/rpmsg_pingpong_freertos_example.dir/home/abhishek/udoo/udoo-neo_custom_linux/m4/FreeRTOS_BSP_1.0.1_iMX6SX/examples/imx6sx_sdb_m4/demo_apps/rpmsg/pingpong_freertos/hardware_init.c.obj
 .text          0x0000000000000000        0x0 CMakeFiles/rpmsg_pingpong_freertos_example.dir/home/abhishek/udoo/udoo-neo_custom_linux/m4/FreeRTOS_BSP_1.0.1_iMX6SX/platform/drivers/src/uart_imx.c.obj
 .data          0x0000000000000000        0x0 CMakeFiles/rpmsg_pingpong_freertos_example.dir/home/abhishek/udoo/udoo-neo_custom_linux/m4/FreeRTOS_BSP_1.0.1_iMX6SX/platform/drivers/src/uart_imx.c.obj
 .bss           0x0000000000000000        0x0 CMakeFiles/rpmsg_pingpong_freertos_example.dir/home/abhishek/udoo/udoo-neo_custom_linux/m4/FreeRTOS_BSP_1.0.1_iMX6SX/platform/drivers/src/uart_imx.c.obj
 .text.UART_SetInvertCmd
                0x0000000000000000       0x64 CMakeFiles/rpmsg_pingpong_freertos_example.dir/home/abhishek/udoo/udoo-neo_custom_linux/m4/FreeRTOS_BSP_1.0.1_iMX6SX/platform/drivers/src/uart_imx.c.obj
 .text.UART_SetDozeMode
                0x0000000000000000       0x16 CMakeFiles/rpmsg_pingpong_freertos_example.dir/home/abhishek/udoo/udoo-neo_custom_linux/m4/FreeRTOS_BSP_1.0.1_iMX6SX/platform/drivers/src/uart_imx.c.obj
 .text.UART_SetLowPowerMode
                0x0000000000000000       0x16 CMakeFiles/rpmsg_pingpong_freertos_example.dir/home/abhishek/udoo/udoo-neo_custom_linux/m4/FreeRTOS_BSP_1.0.1_iMX6SX/platform/drivers/src/uart_imx.c.obj
 .text.UART_SetIntCmd
                0x0000000000000000       0x1c CMakeFiles/rpmsg_pingpong_freertos_example.dir/home/abhishek/udoo/udoo-neo_custom_linux/m4/FreeRTOS_BSP_1.0.1_iMX6SX/platform/drivers/src/uart_imx.c.obj
 .text.UART_ClearStatusFlag
                0x0000000000000000        0xe CMakeFiles/rpmsg_pingpong_freertos_example.dir/home/abhishek/udoo/udoo-neo_custom_linux/m4/FreeRTOS_BSP_1.0.1_iMX6SX/platform/drivers/src/uart_imx.c.obj
 .text.UART_SetDmaCmd
                0x0000000000000000        0x4 CMakeFiles/rpmsg_pingpong_freertos_example.dir/home/abhishek/udoo/udoo-neo_custom_linux/m4/FreeRTOS_BSP_1.0.1_iMX6SX/platform/drivers/src/uart_imx.c.obj
 .text.UART_SetRtsFlowCtrlCmd
                0x0000000000000000       0x16 CMakeFiles/rpmsg_pingpong_freertos_example.dir/home/abhishek/udoo/udoo-neo_custom_linux/m4/FreeRTOS_BSP_1.0.1_iMX6SX/platform/drivers/src/uart_imx.c.obj
 .text.UART_SetCtsFlowCtrlCmd
                0x0000000000000000       0x16 CMakeFiles/rpmsg_pingpong_freertos_example.dir/home/abhishek/udoo/udoo-neo_custom_linux/m4/FreeRTOS_BSP_1.0.1_iMX6SX/platform/drivers/src/uart_imx.c.obj
 .text.UART_SetCtsPinLevel
                0x0000000000000000       0x16 CMakeFiles/rpmsg_pingpong_freertos_example.dir/home/abhishek/udoo/udoo-neo_custom_linux/m4/FreeRTOS_BSP_1.0.1_iMX6SX/platform/drivers/src/uart_imx.c.obj
 .text.UART_SetModemMode
                0x0000000000000000       0x1c CMakeFiles/rpmsg_pingpong_freertos_example.dir/home/abhishek/udoo/udoo-neo_custom_linux/m4/FreeRTOS_BSP_1.0.1_iMX6SX/platform/drivers/src/uart_imx.c.obj
 .text.UART_SetDtrPinLevel
                0x0000000000000000       0x16 CMakeFiles/rpmsg_pingpong_freertos_example.dir/home/abhishek/udoo/udoo-neo_custom_linux/m4/FreeRTOS_BSP_1.0.1_iMX6SX/platform/drivers/src/uart_imx.c.obj
 .text.UART_SetDcdPinLevel
                0x0000000000000000       0x16 CMakeFiles/rpmsg_pingpong_freertos_example.dir/home/abhishek/udoo/udoo-neo_custom_linux/m4/FreeRTOS_BSP_1.0.1_iMX6SX/platform/drivers/src/uart_imx.c.obj
 .text.UART_SetRiPinLevel
                0x0000000000000000       0x16 CMakeFiles/rpmsg_pingpong_freertos_example.dir/home/abhishek/udoo/udoo-neo_custom_linux/m4/FreeRTOS_BSP_1.0.1_iMX6SX/platform/drivers/src/uart_imx.c.obj
 .text.UART_Putchar9
                0x0000000000000000       0x3c CMakeFiles/rpmsg_pingpong_freertos_example.dir/home/abhishek/udoo/udoo-neo_custom_linux/m4/FreeRTOS_BSP_1.0.1_iMX6SX/platform/drivers/src/uart_imx.c.obj
 .text.UART_Getchar9
                0x0000000000000000       0x10 CMakeFiles/rpmsg_pingpong_freertos_example.dir/home/abhishek/udoo/udoo-neo_custom_linux/m4/FreeRTOS_BSP_1.0.1_iMX6SX/platform/drivers/src/uart_imx.c.obj
 .text.UART_SetMultidropMode
                0x0000000000000000       0x16 CMakeFiles/rpmsg_pingpong_freertos_example.dir/home/abhishek/udoo/udoo-neo_custom_linux/m4/FreeRTOS_BSP_1.0.1_iMX6SX/platform/drivers/src/uart_imx.c.obj
 .text.UART_SetSlaveAddressDetectCmd
                0x0000000000000000       0x16 CMakeFiles/rpmsg_pingpong_freertos_example.dir/home/abhishek/udoo/udoo-neo_custom_linux/m4/FreeRTOS_BSP_1.0.1_iMX6SX/platform/drivers/src/uart_imx.c.obj
 .text.UART_SetIrDACmd
                0x0000000000000000       0x16 CMakeFiles/rpmsg_pingpong_freertos_example.dir/home/abhishek/udoo/udoo-neo_custom_linux/m4/FreeRTOS_BSP_1.0.1_iMX6SX/platform/drivers/src/uart_imx.c.obj
 .text.UART_SetIrDAVoteClock
                0x0000000000000000       0x3c CMakeFiles/rpmsg_pingpong_freertos_example.dir/home/abhishek/udoo/udoo-neo_custom_linux/m4/FreeRTOS_BSP_1.0.1_iMX6SX/platform/drivers/src/uart_imx.c.obj
 .text.UART_SetAutoBaudRateCmd
                0x0000000000000000       0x16 CMakeFiles/rpmsg_pingpong_freertos_example.dir/home/abhishek/udoo/udoo-neo_custom_linux/m4/FreeRTOS_BSP_1.0.1_iMX6SX/platform/drivers/src/uart_imx.c.obj
 .text.UART_SendBreakChar
                0x0000000000000000       0x16 CMakeFiles/rpmsg_pingpong_freertos_example.dir/home/abhishek/udoo/udoo-neo_custom_linux/m4/FreeRTOS_BSP_1.0.1_iMX6SX/platform/drivers/src/uart_imx.c.obj
 .text.UART_SetEscapeDecectCmd
                0x0000000000000000       0x16 CMakeFiles/rpmsg_pingpong_freertos_example.dir/home/abhishek/udoo/udoo-neo_custom_linux/m4/FreeRTOS_BSP_1.0.1_iMX6SX/platform/drivers/src/uart_imx.c.obj
 .rodata.UART_Putchar9.str1.1
                0x0000000000000000        0xe CMakeFiles/rpmsg_pingpong_freertos_example.dir/home/abhishek/udoo/udoo-neo_custom_linux/m4/FreeRTOS_BSP_1.0.1_iMX6SX/platform/drivers/src/uart_imx.c.obj
 .rodata.UART_SetInvertCmd.str1.1
                0x0000000000000000       0x3f CMakeFiles/rpmsg_pingpong_freertos_example.dir/home/abhishek/udoo/udoo-neo_custom_linux/m4/FreeRTOS_BSP_1.0.1_iMX6SX/platform/drivers/src/uart_imx.c.obj
 .rodata.UART_SetIrDAVoteClock.str1.1
                0x0000000000000000       0x56 CMakeFiles/rpmsg_pingpong_freertos_example.dir/home/abhishek/udoo/udoo-neo_custom_linux/m4/FreeRTOS_BSP_1.0.1_iMX6SX/platform/drivers/src/uart_imx.c.obj
 .rodata.UART_SetModemMode.str1.1
                0x0000000000000000       0x4f CMakeFiles/rpmsg_pingpong_freertos_example.dir/home/abhishek/udoo/udoo-neo_custom_linux/m4/FreeRTOS_BSP_1.0.1_iMX6SX/platform/drivers/src/uart_imx.c.obj
 .rodata.__func__.8981
                0x0000000000000000       0x12 CMakeFiles/rpmsg_pingpong_freertos_example.dir/home/abhishek/udoo/udoo-neo_custom_linux/m4/FreeRTOS_BSP_1.0.1_iMX6SX/platform/drivers/src/uart_imx.c.obj
 .rodata.__func__.9031
                0x0000000000000000       0x12 CMakeFiles/rpmsg_pingpong_freertos_example.dir/home/abhishek/udoo/udoo-neo_custom_linux/m4/FreeRTOS_BSP_1.0.1_iMX6SX/platform/drivers/src/uart_imx.c.obj
 .rodata.__func__.9048
                0x0000000000000000        0xe CMakeFiles/rpmsg_pingpong_freertos_example.dir/home/abhishek/udoo/udoo-neo_custom_linux/m4/FreeRTOS_BSP_1.0.1_iMX6SX/platform/drivers/src/uart_imx.c.obj
 .rodata.__func__.9069
                0x0000000000000000       0x16 CMakeFiles/rpmsg_pingpong_freertos_example.dir/home/abhishek/udoo/udoo-neo_custom_linux/m4/FreeRTOS_BSP_1.0.1_iMX6SX/platform/drivers/src/uart_imx.c.obj
 .text          0x0000000000000000        0x0 CMakeFiles/rpmsg_pingpong_freertos_example.dir/home/abhishek/udoo/udoo-neo_custom_linux/m4/FreeRTOS_BSP_1.0.1_iMX6SX/platform/drivers/src/mu_imx.c.obj
 .data          0x0000000000000000        0x0 CMakeFiles/rpmsg_pingpong_freertos_example.dir/home/abhishek/udoo/udoo-neo_custom_linux/m4/FreeRTOS_BSP_1.0.1_iMX6SX/platform/drivers/src/mu_imx.c.obj
 .bss           0x0000000000000000        0x0 CMakeFiles/rpmsg_pingpong_freertos_example.dir/home/abhishek/udoo/udoo-neo_custom_linux/m4/FreeRTOS_BSP_1.0.1_iMX6SX/platform/drivers/src/mu_imx.c.obj
 .text.MU_TrySendMsg
                0x0000000000000000       0x34 CMakeFiles/rpmsg_pingpong_freertos_example.dir/home/abhishek/udoo/udoo-neo_custom_linux/m4/FreeRTOS_BSP_1.0.1_iMX6SX/platform/drivers/src/mu_imx.c.obj
 .text.MU_ReceiveMsg
                0x0000000000000000       0x34 CMakeFiles/rpmsg_pingpong_freertos_example.dir/home/abhishek/udoo/udoo-neo_custom_linux/m4/FreeRTOS_BSP_1.0.1_iMX6SX/platform/drivers/src/mu_imx.c.obj
 .text.MU_TriggerGeneralInt
                0x0000000000000000       0x20 CMakeFiles/rpmsg_pingpong_freertos_example.dir/home/abhishek/udoo/udoo-neo_custom_linux/m4/FreeRTOS_BSP_1.0.1_iMX6SX/platform/drivers/src/mu_imx.c.obj
 .text.MU_TrySetFlags
                0x0000000000000000       0x1e CMakeFiles/rpmsg_pingpong_freertos_example.dir/home/abhishek/udoo/udoo-neo_custom_linux/m4/FreeRTOS_BSP_1.0.1_iMX6SX/platform/drivers/src/mu_imx.c.obj
 .text.MU_SetFlags
                0x0000000000000000       0x16 CMakeFiles/rpmsg_pingpong_freertos_example.dir/home/abhishek/udoo/udoo-neo_custom_linux/m4/FreeRTOS_BSP_1.0.1_iMX6SX/platform/drivers/src/mu_imx.c.obj
 .rodata.__func__.8813
                0x0000000000000000        0xe CMakeFiles/rpmsg_pingpong_freertos_example.dir/home/abhishek/udoo/udoo-neo_custom_linux/m4/FreeRTOS_BSP_1.0.1_iMX6SX/platform/drivers/src/mu_imx.c.obj
 .rodata.__func__.8835
                0x0000000000000000        0xe CMakeFiles/rpmsg_pingpong_freertos_example.dir/home/abhishek/udoo/udoo-neo_custom_linux/m4/FreeRTOS_BSP_1.0.1_iMX6SX/platform/drivers/src/mu_imx.c.obj
 .text          0x0000000000000000        0x0 /home/abhishek/udoo/udoo-neo_custom_linux/m4/gcc-arm-none-eabi-7-2018-q2-update-linux/gcc-arm-none-eabi-7-2018-q2-update/bin/../lib/gcc/arm-none-eabi/7.3.1/../../../../arm-none-eabi/lib/thumb/v7e-m/fpv4-sp/hard/libc_nano.a(lib_a-assert.o)
 .data          0x0000000000000000        0x0 /home/abhishek/udoo/udoo-neo_custom_linux/m4/gcc-arm-none-eabi-7-2018-q2-update-linux/gcc-arm-none-eabi-7-2018-q2-update/bin/../lib/gcc/arm-none-eabi/7.3.1/../../../../arm-none-eabi/lib/thumb/v7e-m/fpv4-sp/hard/libc_nano.a(lib_a-assert.o)
 .bss           0x0000000000000000        0x0 /home/abhishek/udoo/udoo-neo_custom_linux/m4/gcc-arm-none-eabi-7-2018-q2-update-linux/gcc-arm-none-eabi-7-2018-q2-update/bin/../lib/gcc/arm-none-eabi/7.3.1/../../../../arm-none-eabi/lib/thumb/v7e-m/fpv4-sp/hard/libc_nano.a(lib_a-assert.o)
 .text.__assert
                0x0000000000000000        0xa /home/abhishek/udoo/udoo-neo_custom_linux/m4/gcc-arm-none-eabi-7-2018-q2-update-linux/gcc-arm-none-eabi-7-2018-q2-update/bin/../lib/gcc/arm-none-eabi/7.3.1/../../../../arm-none-eabi/lib/thumb/v7e-m/fpv4-sp/hard/libc_nano.a(lib_a-assert.o)
 .text          0x0000000000000000        0x0 /home/abhishek/udoo/udoo-neo_custom_linux/m4/gcc-arm-none-eabi-7-2018-q2-update-linux/gcc-arm-none-eabi-7-2018-q2-update/bin/../lib/gcc/arm-none-eabi/7.3.1/../../../../arm-none-eabi/lib/thumb/v7e-m/fpv4-sp/hard/libc_nano.a(lib_a-exit.o)
 .data          0x0000000000000000        0x0 /home/abhishek/udoo/udoo-neo_custom_linux/m4/gcc-arm-none-eabi-7-2018-q2-update-linux/gcc-arm-none-eabi-7-2018-q2-update/bin/../lib/gcc/arm-none-eabi/7.3.1/../../../../arm-none-eabi/lib/thumb/v7e-m/fpv4-sp/hard/libc_nano.a(lib_a-exit.o)
 .bss           0x0000000000000000        0x0 /home/abhishek/udoo/udoo-neo_custom_linux/m4/gcc-arm-none-eabi-7-2018-q2-update-linux/gcc-arm-none-eabi-7-2018-q2-update/bin/../lib/gcc/arm-none-eabi/7.3.1/../../../../arm-none-eabi/lib/thumb/v7e-m/fpv4-sp/hard/libc_nano.a(lib_a-exit.o)
 .text          0x0000000000000000        0x0 /home/abhishek/udoo/udoo-neo_custom_linux/m4/gcc-arm-none-eabi-7-2018-q2-update-linux/gcc-arm-none-eabi-7-2018-q2-update/bin/../lib/gcc/arm-none-eabi/7.3.1/../../../../arm-none-eabi/lib/thumb/v7e-m/fpv4-sp/hard/libc_nano.a(lib_a-fprintf.o)
 .data          0x0000000000000000        0x0 /home/abhishek/udoo/udoo-neo_custom_linux/m4/gcc-arm-none-eabi-7-2018-q2-update-linux/gcc-arm-none-eabi-7-2018-q2-update/bin/../lib/gcc/arm-none-eabi/7.3.1/../../../../arm-none-eabi/lib/thumb/v7e-m/fpv4-sp/hard/libc_nano.a(lib_a-fprintf.o)
 .bss           0x0000000000000000        0x0 /home/abhishek/udoo/udoo-neo_custom_linux/m4/gcc-arm-none-eabi-7-2018-q2-update-linux/gcc-arm-none-eabi-7-2018-q2-update/bin/../lib/gcc/arm-none-eabi/7.3.1/../../../../arm-none-eabi/lib/thumb/v7e-m/fpv4-sp/hard/libc_nano.a(lib_a-fprintf.o)
 .text._fprintf_r
                0x0000000000000000       0x1a /home/abhishek/udoo/udoo-neo_custom_linux/m4/gcc-arm-none-eabi-7-2018-q2-update-linux/gcc-arm-none-eabi-7-2018-q2-update/bin/../lib/gcc/arm-none-eabi/7.3.1/../../../../arm-none-eabi/lib/thumb/v7e-m/fpv4-sp/hard/libc_nano.a(lib_a-fprintf.o)
 .text          0x0000000000000000        0x0 /home/abhishek/udoo/udoo-neo_custom_linux/m4/gcc-arm-none-eabi-7-2018-q2-update-linux/gcc-arm-none-eabi-7-2018-q2-update/bin/../lib/gcc/arm-none-eabi/7.3.1/../../../../arm-none-eabi/lib/thumb/v7e-m/fpv4-sp/hard/libc_nano.a(lib_a-impure.o)
 .data          0x0000000000000000        0x0 /home/abhishek/udoo/udoo-neo_custom_linux/m4/gcc-arm-none-eabi-7-2018-q2-update-linux/gcc-arm-none-eabi-7-2018-q2-update/bin/../lib/gcc/arm-none-eabi/7.3.1/../../../../arm-none-eabi/lib/thumb/v7e-m/fpv4-sp/hard/libc_nano.a(lib_a-impure.o)
 .bss           0x0000000000000000        0x0 /home/abhishek/udoo/udoo-neo_custom_linux/m4/gcc-arm-none-eabi-7-2018-q2-update-linux/gcc-arm-none-eabi-7-2018-q2-update/bin/../lib/gcc/arm-none-eabi/7.3.1/../../../../arm-none-eabi/lib/thumb/v7e-m/fpv4-sp/hard/libc_nano.a(lib_a-impure.o)
 .text          0x0000000000000000        0x0 /home/abhishek/udoo/udoo-neo_custom_linux/m4/gcc-arm-none-eabi-7-2018-q2-update-linux/gcc-arm-none-eabi-7-2018-q2-update/bin/../lib/gcc/arm-none-eabi/7.3.1/../../../../arm-none-eabi/lib/thumb/v7e-m/fpv4-sp/hard/libc_nano.a(lib_a-init.o)
 .data          0x0000000000000000        0x0 /home/abhishek/udoo/udoo-neo_custom_linux/m4/gcc-arm-none-eabi-7-2018-q2-update-linux/gcc-arm-none-eabi-7-2018-q2-update/bin/../lib/gcc/arm-none-eabi/7.3.1/../../../../arm-none-eabi/lib/thumb/v7e-m/fpv4-sp/hard/libc_nano.a(lib_a-init.o)
 .bss           0x0000000000000000        0x0 /home/abhishek/udoo/udoo-neo_custom_linux/m4/gcc-arm-none-eabi-7-2018-q2-update-linux/gcc-arm-none-eabi-7-2018-q2-update/bin/../lib/gcc/arm-none-eabi/7.3.1/../../../../arm-none-eabi/lib/thumb/v7e-m/fpv4-sp/hard/libc_nano.a(lib_a-init.o)
 .text          0x0000000000000000        0x0 /home/abhishek/udoo/udoo-neo_custom_linux/m4/gcc-arm-none-eabi-7-2018-q2-update-linux/gcc-arm-none-eabi-7-2018-q2-update/bin/../lib/gcc/arm-none-eabi/7.3.1/../../../../arm-none-eabi/lib/thumb/v7e-m/fpv4-sp/hard/libc_nano.a(lib_a-memcpy-stub.o)
 .data          0x0000000000000000        0x0 /home/abhishek/udoo/udoo-neo_custom_linux/m4/gcc-arm-none-eabi-7-2018-q2-update-linux/gcc-arm-none-eabi-7-2018-q2-update/bin/../lib/gcc/arm-none-eabi/7.3.1/../../../../arm-none-eabi/lib/thumb/v7e-m/fpv4-sp/hard/libc_nano.a(lib_a-memcpy-stub.o)
 .bss           0x0000000000000000        0x0 /home/abhishek/udoo/udoo-neo_custom_linux/m4/gcc-arm-none-eabi-7-2018-q2-update-linux/gcc-arm-none-eabi-7-2018-q2-update/bin/../lib/gcc/arm-none-eabi/7.3.1/../../../../arm-none-eabi/lib/thumb/v7e-m/fpv4-sp/hard/libc_nano.a(lib_a-memcpy-stub.o)
 .text          0x0000000000000000        0x0 /home/abhishek/udoo/udoo-neo_custom_linux/m4/gcc-arm-none-eabi-7-2018-q2-update-linux/gcc-arm-none-eabi-7-2018-q2-update/bin/../lib/gcc/arm-none-eabi/7.3.1/../../../../arm-none-eabi/lib/thumb/v7e-m/fpv4-sp/hard/libc_nano.a(lib_a-memset.o)
 .data          0x0000000000000000        0x0 /home/abhishek/udoo/udoo-neo_custom_linux/m4/gcc-arm-none-eabi-7-2018-q2-update-linux/gcc-arm-none-eabi-7-2018-q2-update/bin/../lib/gcc/arm-none-eabi/7.3.1/../../../../arm-none-eabi/lib/thumb/v7e-m/fpv4-sp/hard/libc_nano.a(lib_a-memset.o)
 .bss           0x0000000000000000        0x0 /home/abhishek/udoo/udoo-neo_custom_linux/m4/gcc-arm-none-eabi-7-2018-q2-update-linux/gcc-arm-none-eabi-7-2018-q2-update/bin/../lib/gcc/arm-none-eabi/7.3.1/../../../../arm-none-eabi/lib/thumb/v7e-m/fpv4-sp/hard/libc_nano.a(lib_a-memset.o)
 .text          0x0000000000000000        0x0 /home/abhishek/udoo/udoo-neo_custom_linux/m4/gcc-arm-none-eabi-7-2018-q2-update-linux/gcc-arm-none-eabi-7-2018-q2-update/bin/../lib/gcc/arm-none-eabi/7.3.1/../../../../arm-none-eabi/lib/thumb/v7e-m/fpv4-sp/hard/libc_nano.a(lib_a-nano-vfprintf.o)
 .data          0x0000000000000000        0x0 /home/abhishek/udoo/udoo-neo_custom_linux/m4/gcc-arm-none-eabi-7-2018-q2-update-linux/gcc-arm-none-eabi-7-2018-q2-update/bin/../lib/gcc/arm-none-eabi/7.3.1/../../../../arm-none-eabi/lib/thumb/v7e-m/fpv4-sp/hard/libc_nano.a(lib_a-nano-vfprintf.o)
 .bss           0x0000000000000000        0x0 /home/abhishek/udoo/udoo-neo_custom_linux/m4/gcc-arm-none-eabi-7-2018-q2-update-linux/gcc-arm-none-eabi-7-2018-q2-update/bin/../lib/gcc/arm-none-eabi/7.3.1/../../../../arm-none-eabi/lib/thumb/v7e-m/fpv4-sp/hard/libc_nano.a(lib_a-nano-vfprintf.o)
 .text.__sprint_r
                0x0000000000000000       0x1a /home/abhishek/udoo/udoo-neo_custom_linux/m4/gcc-arm-none-eabi-7-2018-q2-update-linux/gcc-arm-none-eabi-7-2018-q2-update/bin/../lib/gcc/arm-none-eabi/7.3.1/../../../../arm-none-eabi/lib/thumb/v7e-m/fpv4-sp/hard/libc_nano.a(lib_a-nano-vfprintf.o)
 .text.vfprintf
                0x0000000000000000       0x14 /home/abhishek/udoo/udoo-neo_custom_linux/m4/gcc-arm-none-eabi-7-2018-q2-update-linux/gcc-arm-none-eabi-7-2018-q2-update/bin/../lib/gcc/arm-none-eabi/7.3.1/../../../../arm-none-eabi/lib/thumb/v7e-m/fpv4-sp/hard/libc_nano.a(lib_a-nano-vfprintf.o)
 .text          0x0000000000000000        0x0 /home/abhishek/udoo/udoo-neo_custom_linux/m4/gcc-arm-none-eabi-7-2018-q2-update-linux/gcc-arm-none-eabi-7-2018-q2-update/bin/../lib/gcc/arm-none-eabi/7.3.1/../../../../arm-none-eabi/lib/thumb/v7e-m/fpv4-sp/hard/libc_nano.a(lib_a-nano-vfprintf_i.o)
 .data          0x0000000000000000        0x0 /home/abhishek/udoo/udoo-neo_custom_linux/m4/gcc-arm-none-eabi-7-2018-q2-update-linux/gcc-arm-none-eabi-7-2018-q2-update/bin/../lib/gcc/arm-none-eabi/7.3.1/../../../../arm-none-eabi/lib/thumb/v7e-m/fpv4-sp/hard/libc_nano.a(lib_a-nano-vfprintf_i.o)
 .bss           0x0000000000000000        0x0 /home/abhishek/udoo/udoo-neo_custom_linux/m4/gcc-arm-none-eabi-7-2018-q2-update-linux/gcc-arm-none-eabi-7-2018-q2-update/bin/../lib/gcc/arm-none-eabi/7.3.1/../../../../arm-none-eabi/lib/thumb/v7e-m/fpv4-sp/hard/libc_nano.a(lib_a-nano-vfprintf_i.o)
 .text          0x0000000000000000       0x14 /home/abhishek/udoo/udoo-neo_custom_linux/m4/gcc-arm-none-eabi-7-2018-q2-update-linux/gcc-arm-none-eabi-7-2018-q2-update/bin/../lib/gcc/arm-none-eabi/7.3.1/../../../../arm-none-eabi/lib/thumb/v7e-m/fpv4-sp/hard/libc_nano.a(lib_a-strcmp.o)
 .data          0x0000000000000000        0x0 /home/abhishek/udoo/udoo-neo_custom_linux/m4/gcc-arm-none-eabi-7-2018-q2-update-linux/gcc-arm-none-eabi-7-2018-q2-update/bin/../lib/gcc/arm-none-eabi/7.3.1/../../../../arm-none-eabi/lib/thumb/v7e-m/fpv4-sp/hard/libc_nano.a(lib_a-strcmp.o)
 .bss           0x0000000000000000        0x0 /home/abhishek/udoo/udoo-neo_custom_linux/m4/gcc-arm-none-eabi-7-2018-q2-update-linux/gcc-arm-none-eabi-7-2018-q2-update/bin/../lib/gcc/arm-none-eabi/7.3.1/../../../../arm-none-eabi/lib/thumb/v7e-m/fpv4-sp/hard/libc_nano.a(lib_a-strcmp.o)
 .debug_frame   0x0000000000000000       0x20 /home/abhishek/udoo/udoo-neo_custom_linux/m4/gcc-arm-none-eabi-7-2018-q2-update-linux/gcc-arm-none-eabi-7-2018-q2-update/bin/../lib/gcc/arm-none-eabi/7.3.1/../../../../arm-none-eabi/lib/thumb/v7e-m/fpv4-sp/hard/libc_nano.a(lib_a-strcmp.o)
 .ARM.attributes
                0x0000000000000000       0x20 /home/abhishek/udoo/udoo-neo_custom_linux/m4/gcc-arm-none-eabi-7-2018-q2-update-linux/gcc-arm-none-eabi-7-2018-q2-update/bin/../lib/gcc/arm-none-eabi/7.3.1/../../../../arm-none-eabi/lib/thumb/v7e-m/fpv4-sp/hard/libc_nano.a(lib_a-strcmp.o)
 .data          0x0000000000000000        0x0 /home/abhishek/udoo/udoo-neo_custom_linux/m4/gcc-arm-none-eabi-7-2018-q2-update-linux/gcc-arm-none-eabi-7-2018-q2-update/bin/../lib/gcc/arm-none-eabi/7.3.1/../../../../arm-none-eabi/lib/thumb/v7e-m/fpv4-sp/hard/libc_nano.a(lib_a-strlen.o)
 .bss           0x0000000000000000        0x0 /home/abhishek/udoo/udoo-neo_custom_linux/m4/gcc-arm-none-eabi-7-2018-q2-update-linux/gcc-arm-none-eabi-7-2018-q2-update/bin/../lib/gcc/arm-none-eabi/7.3.1/../../../../arm-none-eabi/lib/thumb/v7e-m/fpv4-sp/hard/libc_nano.a(lib_a-strlen.o)
 .text          0x0000000000000000        0x0 /home/abhishek/udoo/udoo-neo_custom_linux/m4/gcc-arm-none-eabi-7-2018-q2-update-linux/gcc-arm-none-eabi-7-2018-q2-update/bin/../lib/gcc/arm-none-eabi/7.3.1/../../../../arm-none-eabi/lib/thumb/v7e-m/fpv4-sp/hard/libc_nano.a(lib_a-strncmp.o)
 .data          0x0000000000000000        0x0 /home/abhishek/udoo/udoo-neo_custom_linux/m4/gcc-arm-none-eabi-7-2018-q2-update-linux/gcc-arm-none-eabi-7-2018-q2-update/bin/../lib/gcc/arm-none-eabi/7.3.1/../../../../arm-none-eabi/lib/thumb/v7e-m/fpv4-sp/hard/libc_nano.a(lib_a-strncmp.o)
 .bss           0x0000000000000000        0x0 /home/abhishek/udoo/udoo-neo_custom_linux/m4/gcc-arm-none-eabi-7-2018-q2-update-linux/gcc-arm-none-eabi-7-2018-q2-update/bin/../lib/gcc/arm-none-eabi/7.3.1/../../../../arm-none-eabi/lib/thumb/v7e-m/fpv4-sp/hard/libc_nano.a(lib_a-strncmp.o)
 .text          0x0000000000000000        0x0 /home/abhishek/udoo/udoo-neo_custom_linux/m4/gcc-arm-none-eabi-7-2018-q2-update-linux/gcc-arm-none-eabi-7-2018-q2-update/bin/../lib/gcc/arm-none-eabi/7.3.1/../../../../arm-none-eabi/lib/thumb/v7e-m/fpv4-sp/hard/libc_nano.a(lib_a-strncpy.o)
 .data          0x0000000000000000        0x0 /home/abhishek/udoo/udoo-neo_custom_linux/m4/gcc-arm-none-eabi-7-2018-q2-update-linux/gcc-arm-none-eabi-7-2018-q2-update/bin/../lib/gcc/arm-none-eabi/7.3.1/../../../../arm-none-eabi/lib/thumb/v7e-m/fpv4-sp/hard/libc_nano.a(lib_a-strncpy.o)
 .bss           0x0000000000000000        0x0 /home/abhishek/udoo/udoo-neo_custom_linux/m4/gcc-arm-none-eabi-7-2018-q2-update-linux/gcc-arm-none-eabi-7-2018-q2-update/bin/../lib/gcc/arm-none-eabi/7.3.1/../../../../arm-none-eabi/lib/thumb/v7e-m/fpv4-sp/hard/libc_nano.a(lib_a-strncpy.o)
 .text          0x0000000000000000        0x0 /home/abhishek/udoo/udoo-neo_custom_linux/m4/gcc-arm-none-eabi-7-2018-q2-update-linux/gcc-arm-none-eabi-7-2018-q2-update/bin/../lib/gcc/arm-none-eabi/7.3.1/../../../../arm-none-eabi/lib/thumb/v7e-m/fpv4-sp/hard/libc_nano.a(lib_a-wbuf.o)
 .data          0x0000000000000000        0x0 /home/abhishek/udoo/udoo-neo_custom_linux/m4/gcc-arm-none-eabi-7-2018-q2-update-linux/gcc-arm-none-eabi-7-2018-q2-update/bin/../lib/gcc/arm-none-eabi/7.3.1/../../../../arm-none-eabi/lib/thumb/v7e-m/fpv4-sp/hard/libc_nano.a(lib_a-wbuf.o)
 .bss           0x0000000000000000        0x0 /home/abhishek/udoo/udoo-neo_custom_linux/m4/gcc-arm-none-eabi-7-2018-q2-update-linux/gcc-arm-none-eabi-7-2018-q2-update/bin/../lib/gcc/arm-none-eabi/7.3.1/../../../../arm-none-eabi/lib/thumb/v7e-m/fpv4-sp/hard/libc_nano.a(lib_a-wbuf.o)
 .text.__swbuf  0x0000000000000000       0x10 /home/abhishek/udoo/udoo-neo_custom_linux/m4/gcc-arm-none-eabi-7-2018-q2-update-linux/gcc-arm-none-eabi-7-2018-q2-update/bin/../lib/gcc/arm-none-eabi/7.3.1/../../../../arm-none-eabi/lib/thumb/v7e-m/fpv4-sp/hard/libc_nano.a(lib_a-wbuf.o)
 .text          0x0000000000000000        0x0 /home/abhishek/udoo/udoo-neo_custom_linux/m4/gcc-arm-none-eabi-7-2018-q2-update-linux/gcc-arm-none-eabi-7-2018-q2-update/bin/../lib/gcc/arm-none-eabi/7.3.1/../../../../arm-none-eabi/lib/thumb/v7e-m/fpv4-sp/hard/libc_nano.a(lib_a-wsetup.o)
 .data          0x0000000000000000        0x0 /home/abhishek/udoo/udoo-neo_custom_linux/m4/gcc-arm-none-eabi-7-2018-q2-update-linux/gcc-arm-none-eabi-7-2018-q2-update/bin/../lib/gcc/arm-none-eabi/7.3.1/../../../../arm-none-eabi/lib/thumb/v7e-m/fpv4-sp/hard/libc_nano.a(lib_a-wsetup.o)
 .bss           0x0000000000000000        0x0 /home/abhishek/udoo/udoo-neo_custom_linux/m4/gcc-arm-none-eabi-7-2018-q2-update-linux/gcc-arm-none-eabi-7-2018-q2-update/bin/../lib/gcc/arm-none-eabi/7.3.1/../../../../arm-none-eabi/lib/thumb/v7e-m/fpv4-sp/hard/libc_nano.a(lib_a-wsetup.o)
 .text          0x0000000000000000        0x0 /home/abhishek/udoo/udoo-neo_custom_linux/m4/gcc-arm-none-eabi-7-2018-q2-update-linux/gcc-arm-none-eabi-7-2018-q2-update/bin/../lib/gcc/arm-none-eabi/7.3.1/../../../../arm-none-eabi/lib/thumb/v7e-m/fpv4-sp/hard/libc_nano.a(lib_a-abort.o)
 .data          0x0000000000000000        0x0 /home/abhishek/udoo/udoo-neo_custom_linux/m4/gcc-arm-none-eabi-7-2018-q2-update-linux/gcc-arm-none-eabi-7-2018-q2-update/bin/../lib/gcc/arm-none-eabi/7.3.1/../../../../arm-none-eabi/lib/thumb/v7e-m/fpv4-sp/hard/libc_nano.a(lib_a-abort.o)
 .bss           0x0000000000000000        0x0 /home/abhishek/udoo/udoo-neo_custom_linux/m4/gcc-arm-none-eabi-7-2018-q2-update-linux/gcc-arm-none-eabi-7-2018-q2-update/bin/../lib/gcc/arm-none-eabi/7.3.1/../../../../arm-none-eabi/lib/thumb/v7e-m/fpv4-sp/hard/libc_nano.a(lib_a-abort.o)
 .text          0x0000000000000000        0x0 /home/abhishek/udoo/udoo-neo_custom_linux/m4/gcc-arm-none-eabi-7-2018-q2-update-linux/gcc-arm-none-eabi-7-2018-q2-update/bin/../lib/gcc/arm-none-eabi/7.3.1/../../../../arm-none-eabi/lib/thumb/v7e-m/fpv4-sp/hard/libc_nano.a(lib_a-fflush.o)
 .data          0x0000000000000000        0x0 /home/abhishek/udoo/udoo-neo_custom_linux/m4/gcc-arm-none-eabi-7-2018-q2-update-linux/gcc-arm-none-eabi-7-2018-q2-update/bin/../lib/gcc/arm-none-eabi/7.3.1/../../../../arm-none-eabi/lib/thumb/v7e-m/fpv4-sp/hard/libc_nano.a(lib_a-fflush.o)
 .bss           0x0000000000000000        0x0 /home/abhishek/udoo/udoo-neo_custom_linux/m4/gcc-arm-none-eabi-7-2018-q2-update-linux/gcc-arm-none-eabi-7-2018-q2-update/bin/../lib/gcc/arm-none-eabi/7.3.1/../../../../arm-none-eabi/lib/thumb/v7e-m/fpv4-sp/hard/libc_nano.a(lib_a-fflush.o)
 .text.fflush   0x0000000000000000       0x24 /home/abhishek/udoo/udoo-neo_custom_linux/m4/gcc-arm-none-eabi-7-2018-q2-update-linux/gcc-arm-none-eabi-7-2018-q2-update/bin/../lib/gcc/arm-none-eabi/7.3.1/../../../../arm-none-eabi/lib/thumb/v7e-m/fpv4-sp/hard/libc_nano.a(lib_a-fflush.o)
 .text          0x0000000000000000        0x0 /home/abhishek/udoo/udoo-neo_custom_linux/m4/gcc-arm-none-eabi-7-2018-q2-update-linux/gcc-arm-none-eabi-7-2018-q2-update/bin/../lib/gcc/arm-none-eabi/7.3.1/../../../../arm-none-eabi/lib/thumb/v7e-m/fpv4-sp/hard/libc_nano.a(lib_a-findfp.o)
 .data          0x0000000000000000        0x0 /home/abhishek/udoo/udoo-neo_custom_linux/m4/gcc-arm-none-eabi-7-2018-q2-update-linux/gcc-arm-none-eabi-7-2018-q2-update/bin/../lib/gcc/arm-none-eabi/7.3.1/../../../../arm-none-eabi/lib/thumb/v7e-m/fpv4-sp/hard/libc_nano.a(lib_a-findfp.o)
 .bss           0x0000000000000000        0x0 /home/abhishek/udoo/udoo-neo_custom_linux/m4/gcc-arm-none-eabi-7-2018-q2-update-linux/gcc-arm-none-eabi-7-2018-q2-update/bin/../lib/gcc/arm-none-eabi/7.3.1/../../../../arm-none-eabi/lib/thumb/v7e-m/fpv4-sp/hard/libc_nano.a(lib_a-findfp.o)
 .text.__fp_lock
                0x0000000000000000        0x4 /home/abhishek/udoo/udoo-neo_custom_linux/m4/gcc-arm-none-eabi-7-2018-q2-update-linux/gcc-arm-none-eabi-7-2018-q2-update/bin/../lib/gcc/arm-none-eabi/7.3.1/../../../../arm-none-eabi/lib/thumb/v7e-m/fpv4-sp/hard/libc_nano.a(lib_a-findfp.o)
 .text.__fp_unlock
                0x0000000000000000        0x4 /home/abhishek/udoo/udoo-neo_custom_linux/m4/gcc-arm-none-eabi-7-2018-q2-update-linux/gcc-arm-none-eabi-7-2018-q2-update/bin/../lib/gcc/arm-none-eabi/7.3.1/../../../../arm-none-eabi/lib/thumb/v7e-m/fpv4-sp/hard/libc_nano.a(lib_a-findfp.o)
 .text._cleanup
                0x0000000000000000        0xc /home/abhishek/udoo/udoo-neo_custom_linux/m4/gcc-arm-none-eabi-7-2018-q2-update-linux/gcc-arm-none-eabi-7-2018-q2-update/bin/../lib/gcc/arm-none-eabi/7.3.1/../../../../arm-none-eabi/lib/thumb/v7e-m/fpv4-sp/hard/libc_nano.a(lib_a-findfp.o)
 .text.__sfp_lock_acquire
                0x0000000000000000        0x2 /home/abhishek/udoo/udoo-neo_custom_linux/m4/gcc-arm-none-eabi-7-2018-q2-update-linux/gcc-arm-none-eabi-7-2018-q2-update/bin/../lib/gcc/arm-none-eabi/7.3.1/../../../../arm-none-eabi/lib/thumb/v7e-m/fpv4-sp/hard/libc_nano.a(lib_a-findfp.o)
 .text.__sfp_lock_release
                0x0000000000000000        0x2 /home/abhishek/udoo/udoo-neo_custom_linux/m4/gcc-arm-none-eabi-7-2018-q2-update-linux/gcc-arm-none-eabi-7-2018-q2-update/bin/../lib/gcc/arm-none-eabi/7.3.1/../../../../arm-none-eabi/lib/thumb/v7e-m/fpv4-sp/hard/libc_nano.a(lib_a-findfp.o)
 .text.__sinit_lock_acquire
                0x0000000000000000        0x2 /home/abhishek/udoo/udoo-neo_custom_linux/m4/gcc-arm-none-eabi-7-2018-q2-update-linux/gcc-arm-none-eabi-7-2018-q2-update/bin/../lib/gcc/arm-none-eabi/7.3.1/../../../../arm-none-eabi/lib/thumb/v7e-m/fpv4-sp/hard/libc_nano.a(lib_a-findfp.o)
 .text.__sinit_lock_release
                0x0000000000000000        0x2 /home/abhishek/udoo/udoo-neo_custom_linux/m4/gcc-arm-none-eabi-7-2018-q2-update-linux/gcc-arm-none-eabi-7-2018-q2-update/bin/../lib/gcc/arm-none-eabi/7.3.1/../../../../arm-none-eabi/lib/thumb/v7e-m/fpv4-sp/hard/libc_nano.a(lib_a-findfp.o)
 .text.__fp_lock_all
                0x0000000000000000       0x14 /home/abhishek/udoo/udoo-neo_custom_linux/m4/gcc-arm-none-eabi-7-2018-q2-update-linux/gcc-arm-none-eabi-7-2018-q2-update/bin/../lib/gcc/arm-none-eabi/7.3.1/../../../../arm-none-eabi/lib/thumb/v7e-m/fpv4-sp/hard/libc_nano.a(lib_a-findfp.o)
 .text.__fp_unlock_all
                0x0000000000000000       0x14 /home/abhishek/udoo/udoo-neo_custom_linux/m4/gcc-arm-none-eabi-7-2018-q2-update-linux/gcc-arm-none-eabi-7-2018-q2-update/bin/../lib/gcc/arm-none-eabi/7.3.1/../../../../arm-none-eabi/lib/thumb/v7e-m/fpv4-sp/hard/libc_nano.a(lib_a-findfp.o)
 .text          0x0000000000000000        0x0 /home/abhishek/udoo/udoo-neo_custom_linux/m4/gcc-arm-none-eabi-7-2018-q2-update-linux/gcc-arm-none-eabi-7-2018-q2-update/bin/../lib/gcc/arm-none-eabi/7.3.1/../../../../arm-none-eabi/lib/thumb/v7e-m/fpv4-sp/hard/libc_nano.a(lib_a-fvwrite.o)
 .data          0x0000000000000000        0x0 /home/abhishek/udoo/udoo-neo_custom_linux/m4/gcc-arm-none-eabi-7-2018-q2-update-linux/gcc-arm-none-eabi-7-2018-q2-update/bin/../lib/gcc/arm-none-eabi/7.3.1/../../../../arm-none-eabi/lib/thumb/v7e-m/fpv4-sp/hard/libc_nano.a(lib_a-fvwrite.o)
 .bss           0x0000000000000000        0x0 /home/abhishek/udoo/udoo-neo_custom_linux/m4/gcc-arm-none-eabi-7-2018-q2-update-linux/gcc-arm-none-eabi-7-2018-q2-update/bin/../lib/gcc/arm-none-eabi/7.3.1/../../../../arm-none-eabi/lib/thumb/v7e-m/fpv4-sp/hard/libc_nano.a(lib_a-fvwrite.o)
 .text.__sfvwrite_r
                0x0000000000000000      0x29c /home/abhishek/udoo/udoo-neo_custom_linux/m4/gcc-arm-none-eabi-7-2018-q2-update-linux/gcc-arm-none-eabi-7-2018-q2-update/bin/../lib/gcc/arm-none-eabi/7.3.1/../../../../arm-none-eabi/lib/thumb/v7e-m/fpv4-sp/hard/libc_nano.a(lib_a-fvwrite.o)
 .debug_frame   0x0000000000000000       0x3c /home/abhishek/udoo/udoo-neo_custom_linux/m4/gcc-arm-none-eabi-7-2018-q2-update-linux/gcc-arm-none-eabi-7-2018-q2-update/bin/../lib/gcc/arm-none-eabi/7.3.1/../../../../arm-none-eabi/lib/thumb/v7e-m/fpv4-sp/hard/libc_nano.a(lib_a-fvwrite.o)
 .ARM.attributes
                0x0000000000000000       0x34 /home/abhishek/udoo/udoo-neo_custom_linux/m4/gcc-arm-none-eabi-7-2018-q2-update-linux/gcc-arm-none-eabi-7-2018-q2-update/bin/../lib/gcc/arm-none-eabi/7.3.1/../../../../arm-none-eabi/lib/thumb/v7e-m/fpv4-sp/hard/libc_nano.a(lib_a-fvwrite.o)
 .text          0x0000000000000000        0x0 /home/abhishek/udoo/udoo-neo_custom_linux/m4/gcc-arm-none-eabi-7-2018-q2-update-linux/gcc-arm-none-eabi-7-2018-q2-update/bin/../lib/gcc/arm-none-eabi/7.3.1/../../../../arm-none-eabi/lib/thumb/v7e-m/fpv4-sp/hard/libc_nano.a(lib_a-fwalk.o)
 .data          0x0000000000000000        0x0 /home/abhishek/udoo/udoo-neo_custom_linux/m4/gcc-arm-none-eabi-7-2018-q2-update-linux/gcc-arm-none-eabi-7-2018-q2-update/bin/../lib/gcc/arm-none-eabi/7.3.1/../../../../arm-none-eabi/lib/thumb/v7e-m/fpv4-sp/hard/libc_nano.a(lib_a-fwalk.o)
 .bss           0x0000000000000000        0x0 /home/abhishek/udoo/udoo-neo_custom_linux/m4/gcc-arm-none-eabi-7-2018-q2-update-linux/gcc-arm-none-eabi-7-2018-q2-update/bin/../lib/gcc/arm-none-eabi/7.3.1/../../../../arm-none-eabi/lib/thumb/v7e-m/fpv4-sp/hard/libc_nano.a(lib_a-fwalk.o)
 .text._fwalk   0x0000000000000000       0x38 /home/abhishek/udoo/udoo-neo_custom_linux/m4/gcc-arm-none-eabi-7-2018-q2-update-linux/gcc-arm-none-eabi-7-2018-q2-update/bin/../lib/gcc/arm-none-eabi/7.3.1/../../../../arm-none-eabi/lib/thumb/v7e-m/fpv4-sp/hard/libc_nano.a(lib_a-fwalk.o)
 .text          0x0000000000000000        0x0 /home/abhishek/udoo/udoo-neo_custom_linux/m4/gcc-arm-none-eabi-7-2018-q2-update-linux/gcc-arm-none-eabi-7-2018-q2-update/bin/../lib/gcc/arm-none-eabi/7.3.1/../../../../arm-none-eabi/lib/thumb/v7e-m/fpv4-sp/hard/libc_nano.a(lib_a-makebuf.o)
 .data          0x0000000000000000        0x0 /home/abhishek/udoo/udoo-neo_custom_linux/m4/gcc-arm-none-eabi-7-2018-q2-update-linux/gcc-arm-none-eabi-7-2018-q2-update/bin/../lib/gcc/arm-none-eabi/7.3.1/../../../../arm-none-eabi/lib/thumb/v7e-m/fpv4-sp/hard/libc_nano.a(lib_a-makebuf.o)
 .bss           0x0000000000000000        0x0 /home/abhishek/udoo/udoo-neo_custom_linux/m4/gcc-arm-none-eabi-7-2018-q2-update-linux/gcc-arm-none-eabi-7-2018-q2-update/bin/../lib/gcc/arm-none-eabi/7.3.1/../../../../arm-none-eabi/lib/thumb/v7e-m/fpv4-sp/hard/libc_nano.a(lib_a-makebuf.o)
 .data          0x0000000000000000        0x0 /home/abhishek/udoo/udoo-neo_custom_linux/m4/gcc-arm-none-eabi-7-2018-q2-update-linux/gcc-arm-none-eabi-7-2018-q2-update/bin/../lib/gcc/arm-none-eabi/7.3.1/../../../../arm-none-eabi/lib/thumb/v7e-m/fpv4-sp/hard/libc_nano.a(lib_a-memchr.o)
 .bss           0x0000000000000000        0x0 /home/abhishek/udoo/udoo-neo_custom_linux/m4/gcc-arm-none-eabi-7-2018-q2-update-linux/gcc-arm-none-eabi-7-2018-q2-update/bin/../lib/gcc/arm-none-eabi/7.3.1/../../../../arm-none-eabi/lib/thumb/v7e-m/fpv4-sp/hard/libc_nano.a(lib_a-memchr.o)
 .text          0x0000000000000000        0x0 /home/abhishek/udoo/udoo-neo_custom_linux/m4/gcc-arm-none-eabi-7-2018-q2-update-linux/gcc-arm-none-eabi-7-2018-q2-update/bin/../lib/gcc/arm-none-eabi/7.3.1/../../../../arm-none-eabi/lib/thumb/v7e-m/fpv4-sp/hard/libc_nano.a(lib_a-memmove.o)
 .data          0x0000000000000000        0x0 /home/abhishek/udoo/udoo-neo_custom_linux/m4/gcc-arm-none-eabi-7-2018-q2-update-linux/gcc-arm-none-eabi-7-2018-q2-update/bin/../lib/gcc/arm-none-eabi/7.3.1/../../../../arm-none-eabi/lib/thumb/v7e-m/fpv4-sp/hard/libc_nano.a(lib_a-memmove.o)
 .bss           0x0000000000000000        0x0 /home/abhishek/udoo/udoo-neo_custom_linux/m4/gcc-arm-none-eabi-7-2018-q2-update-linux/gcc-arm-none-eabi-7-2018-q2-update/bin/../lib/gcc/arm-none-eabi/7.3.1/../../../../arm-none-eabi/lib/thumb/v7e-m/fpv4-sp/hard/libc_nano.a(lib_a-memmove.o)
 .text.memmove  0x0000000000000000       0x32 /home/abhishek/udoo/udoo-neo_custom_linux/m4/gcc-arm-none-eabi-7-2018-q2-update-linux/gcc-arm-none-eabi-7-2018-q2-update/bin/../lib/gcc/arm-none-eabi/7.3.1/../../../../arm-none-eabi/lib/thumb/v7e-m/fpv4-sp/hard/libc_nano.a(lib_a-memmove.o)
 .debug_frame   0x0000000000000000       0x28 /home/abhishek/udoo/udoo-neo_custom_linux/m4/gcc-arm-none-eabi-7-2018-q2-update-linux/gcc-arm-none-eabi-7-2018-q2-update/bin/../lib/gcc/arm-none-eabi/7.3.1/../../../../arm-none-eabi/lib/thumb/v7e-m/fpv4-sp/hard/libc_nano.a(lib_a-memmove.o)
 .ARM.attributes
                0x0000000000000000       0x34 /home/abhishek/udoo/udoo-neo_custom_linux/m4/gcc-arm-none-eabi-7-2018-q2-update-linux/gcc-arm-none-eabi-7-2018-q2-update/bin/../lib/gcc/arm-none-eabi/7.3.1/../../../../arm-none-eabi/lib/thumb/v7e-m/fpv4-sp/hard/libc_nano.a(lib_a-memmove.o)
 .text          0x0000000000000000        0x0 /home/abhishek/udoo/udoo-neo_custom_linux/m4/gcc-arm-none-eabi-7-2018-q2-update-linux/gcc-arm-none-eabi-7-2018-q2-update/bin/../lib/gcc/arm-none-eabi/7.3.1/../../../../arm-none-eabi/lib/thumb/v7e-m/fpv4-sp/hard/libc_nano.a(lib_a-nano-freer.o)
 .data          0x0000000000000000        0x0 /home/abhishek/udoo/udoo-neo_custom_linux/m4/gcc-arm-none-eabi-7-2018-q2-update-linux/gcc-arm-none-eabi-7-2018-q2-update/bin/../lib/gcc/arm-none-eabi/7.3.1/../../../../arm-none-eabi/lib/thumb/v7e-m/fpv4-sp/hard/libc_nano.a(lib_a-nano-freer.o)
 .bss           0x0000000000000000        0x0 /home/abhishek/udoo/udoo-neo_custom_linux/m4/gcc-arm-none-eabi-7-2018-q2-update-linux/gcc-arm-none-eabi-7-2018-q2-update/bin/../lib/gcc/arm-none-eabi/7.3.1/../../../../arm-none-eabi/lib/thumb/v7e-m/fpv4-sp/hard/libc_nano.a(lib_a-nano-freer.o)
 .text          0x0000000000000000        0x0 /home/abhishek/udoo/udoo-neo_custom_linux/m4/gcc-arm-none-eabi-7-2018-q2-update-linux/gcc-arm-none-eabi-7-2018-q2-update/bin/../lib/gcc/arm-none-eabi/7.3.1/../../../../arm-none-eabi/lib/thumb/v7e-m/fpv4-sp/hard/libc_nano.a(lib_a-nano-mallocr.o)
 .data          0x0000000000000000        0x0 /home/abhishek/udoo/udoo-neo_custom_linux/m4/gcc-arm-none-eabi-7-2018-q2-update-linux/gcc-arm-none-eabi-7-2018-q2-update/bin/../lib/gcc/arm-none-eabi/7.3.1/../../../../arm-none-eabi/lib/thumb/v7e-m/fpv4-sp/hard/libc_nano.a(lib_a-nano-mallocr.o)
 .bss           0x0000000000000000        0x0 /home/abhishek/udoo/udoo-neo_custom_linux/m4/gcc-arm-none-eabi-7-2018-q2-update-linux/gcc-arm-none-eabi-7-2018-q2-update/bin/../lib/gcc/arm-none-eabi/7.3.1/../../../../arm-none-eabi/lib/thumb/v7e-m/fpv4-sp/hard/libc_nano.a(lib_a-nano-mallocr.o)
 .text          0x0000000000000000        0x0 /home/abhishek/udoo/udoo-neo_custom_linux/m4/gcc-arm-none-eabi-7-2018-q2-update-linux/gcc-arm-none-eabi-7-2018-q2-update/bin/../lib/gcc/arm-none-eabi/7.3.1/../../../../arm-none-eabi/lib/thumb/v7e-m/fpv4-sp/hard/libc_nano.a(lib_a-nano-reallocr.o)
 .data          0x0000000000000000        0x0 /home/abhishek/udoo/udoo-neo_custom_linux/m4/gcc-arm-none-eabi-7-2018-q2-update-linux/gcc-arm-none-eabi-7-2018-q2-update/bin/../lib/gcc/arm-none-eabi/7.3.1/../../../../arm-none-eabi/lib/thumb/v7e-m/fpv4-sp/hard/libc_nano.a(lib_a-nano-reallocr.o)
 .bss           0x0000000000000000        0x0 /home/abhishek/udoo/udoo-neo_custom_linux/m4/gcc-arm-none-eabi-7-2018-q2-update-linux/gcc-arm-none-eabi-7-2018-q2-update/bin/../lib/gcc/arm-none-eabi/7.3.1/../../../../arm-none-eabi/lib/thumb/v7e-m/fpv4-sp/hard/libc_nano.a(lib_a-nano-reallocr.o)
 .text._realloc_r
                0x0000000000000000       0x4c /home/abhishek/udoo/udoo-neo_custom_linux/m4/gcc-arm-none-eabi-7-2018-q2-update-linux/gcc-arm-none-eabi-7-2018-q2-update/bin/../lib/gcc/arm-none-eabi/7.3.1/../../../../arm-none-eabi/lib/thumb/v7e-m/fpv4-sp/hard/libc_nano.a(lib_a-nano-reallocr.o)
 .debug_frame   0x0000000000000000       0x3c /home/abhishek/udoo/udoo-neo_custom_linux/m4/gcc-arm-none-eabi-7-2018-q2-update-linux/gcc-arm-none-eabi-7-2018-q2-update/bin/../lib/gcc/arm-none-eabi/7.3.1/../../../../arm-none-eabi/lib/thumb/v7e-m/fpv4-sp/hard/libc_nano.a(lib_a-nano-reallocr.o)
 .ARM.attributes
                0x0000000000000000       0x34 /home/abhishek/udoo/udoo-neo_custom_linux/m4/gcc-arm-none-eabi-7-2018-q2-update-linux/gcc-arm-none-eabi-7-2018-q2-update/bin/../lib/gcc/arm-none-eabi/7.3.1/../../../../arm-none-eabi/lib/thumb/v7e-m/fpv4-sp/hard/libc_nano.a(lib_a-nano-reallocr.o)
 .text          0x0000000000000000        0x0 /home/abhishek/udoo/udoo-neo_custom_linux/m4/gcc-arm-none-eabi-7-2018-q2-update-linux/gcc-arm-none-eabi-7-2018-q2-update/bin/../lib/gcc/arm-none-eabi/7.3.1/../../../../arm-none-eabi/lib/thumb/v7e-m/fpv4-sp/hard/libc_nano.a(lib_a-sbrkr.o)
 .data          0x0000000000000000        0x0 /home/abhishek/udoo/udoo-neo_custom_linux/m4/gcc-arm-none-eabi-7-2018-q2-update-linux/gcc-arm-none-eabi-7-2018-q2-update/bin/../lib/gcc/arm-none-eabi/7.3.1/../../../../arm-none-eabi/lib/thumb/v7e-m/fpv4-sp/hard/libc_nano.a(lib_a-sbrkr.o)
 .bss           0x0000000000000000        0x0 /home/abhishek/udoo/udoo-neo_custom_linux/m4/gcc-arm-none-eabi-7-2018-q2-update-linux/gcc-arm-none-eabi-7-2018-q2-update/bin/../lib/gcc/arm-none-eabi/7.3.1/../../../../arm-none-eabi/lib/thumb/v7e-m/fpv4-sp/hard/libc_nano.a(lib_a-sbrkr.o)
 .text          0x0000000000000000        0x0 /home/abhishek/udoo/udoo-neo_custom_linux/m4/gcc-arm-none-eabi-7-2018-q2-update-linux/gcc-arm-none-eabi-7-2018-q2-update/bin/../lib/gcc/arm-none-eabi/7.3.1/../../../../arm-none-eabi/lib/thumb/v7e-m/fpv4-sp/hard/libc_nano.a(lib_a-signal.o)
 .data          0x0000000000000000        0x0 /home/abhishek/udoo/udoo-neo_custom_linux/m4/gcc-arm-none-eabi-7-2018-q2-update-linux/gcc-arm-none-eabi-7-2018-q2-update/bin/../lib/gcc/arm-none-eabi/7.3.1/../../../../arm-none-eabi/lib/thumb/v7e-m/fpv4-sp/hard/libc_nano.a(lib_a-signal.o)
 .bss           0x0000000000000000        0x0 /home/abhishek/udoo/udoo-neo_custom_linux/m4/gcc-arm-none-eabi-7-2018-q2-update-linux/gcc-arm-none-eabi-7-2018-q2-update/bin/../lib/gcc/arm-none-eabi/7.3.1/../../../../arm-none-eabi/lib/thumb/v7e-m/fpv4-sp/hard/libc_nano.a(lib_a-signal.o)
 .text._init_signal_r
                0x0000000000000000       0x28 /home/abhishek/udoo/udoo-neo_custom_linux/m4/gcc-arm-none-eabi-7-2018-q2-update-linux/gcc-arm-none-eabi-7-2018-q2-update/bin/../lib/gcc/arm-none-eabi/7.3.1/../../../../arm-none-eabi/lib/thumb/v7e-m/fpv4-sp/hard/libc_nano.a(lib_a-signal.o)
 .text._signal_r
                0x0000000000000000       0x30 /home/abhishek/udoo/udoo-neo_custom_linux/m4/gcc-arm-none-eabi-7-2018-q2-update-linux/gcc-arm-none-eabi-7-2018-q2-update/bin/../lib/gcc/arm-none-eabi/7.3.1/../../../../arm-none-eabi/lib/thumb/v7e-m/fpv4-sp/hard/libc_nano.a(lib_a-signal.o)
 .text.__sigtramp_r
                0x0000000000000000       0x48 /home/abhishek/udoo/udoo-neo_custom_linux/m4/gcc-arm-none-eabi-7-2018-q2-update-linux/gcc-arm-none-eabi-7-2018-q2-update/bin/../lib/gcc/arm-none-eabi/7.3.1/../../../../arm-none-eabi/lib/thumb/v7e-m/fpv4-sp/hard/libc_nano.a(lib_a-signal.o)
 .text.signal   0x0000000000000000       0x10 /home/abhishek/udoo/udoo-neo_custom_linux/m4/gcc-arm-none-eabi-7-2018-q2-update-linux/gcc-arm-none-eabi-7-2018-q2-update/bin/../lib/gcc/arm-none-eabi/7.3.1/../../../../arm-none-eabi/lib/thumb/v7e-m/fpv4-sp/hard/libc_nano.a(lib_a-signal.o)
 .text._init_signal
                0x0000000000000000        0xc /home/abhishek/udoo/udoo-neo_custom_linux/m4/gcc-arm-none-eabi-7-2018-q2-update-linux/gcc-arm-none-eabi-7-2018-q2-update/bin/../lib/gcc/arm-none-eabi/7.3.1/../../../../arm-none-eabi/lib/thumb/v7e-m/fpv4-sp/hard/libc_nano.a(lib_a-signal.o)
 .text.__sigtramp
                0x0000000000000000       0x10 /home/abhishek/udoo/udoo-neo_custom_linux/m4/gcc-arm-none-eabi-7-2018-q2-update-linux/gcc-arm-none-eabi-7-2018-q2-update/bin/../lib/gcc/arm-none-eabi/7.3.1/../../../../arm-none-eabi/lib/thumb/v7e-m/fpv4-sp/hard/libc_nano.a(lib_a-signal.o)
 .text          0x0000000000000000        0x0 /home/abhishek/udoo/udoo-neo_custom_linux/m4/gcc-arm-none-eabi-7-2018-q2-update-linux/gcc-arm-none-eabi-7-2018-q2-update/bin/../lib/gcc/arm-none-eabi/7.3.1/../../../../arm-none-eabi/lib/thumb/v7e-m/fpv4-sp/hard/libc_nano.a(lib_a-signalr.o)
 .data          0x0000000000000000        0x0 /home/abhishek/udoo/udoo-neo_custom_linux/m4/gcc-arm-none-eabi-7-2018-q2-update-linux/gcc-arm-none-eabi-7-2018-q2-update/bin/../lib/gcc/arm-none-eabi/7.3.1/../../../../arm-none-eabi/lib/thumb/v7e-m/fpv4-sp/hard/libc_nano.a(lib_a-signalr.o)
 .bss           0x0000000000000000        0x0 /home/abhishek/udoo/udoo-neo_custom_linux/m4/gcc-arm-none-eabi-7-2018-q2-update-linux/gcc-arm-none-eabi-7-2018-q2-update/bin/../lib/gcc/arm-none-eabi/7.3.1/../../../../arm-none-eabi/lib/thumb/v7e-m/fpv4-sp/hard/libc_nano.a(lib_a-signalr.o)
 .text          0x0000000000000000        0x0 /home/abhishek/udoo/udoo-neo_custom_linux/m4/gcc-arm-none-eabi-7-2018-q2-update-linux/gcc-arm-none-eabi-7-2018-q2-update/bin/../lib/gcc/arm-none-eabi/7.3.1/../../../../arm-none-eabi/lib/thumb/v7e-m/fpv4-sp/hard/libc_nano.a(lib_a-stdio.o)
 .data          0x0000000000000000        0x0 /home/abhishek/udoo/udoo-neo_custom_linux/m4/gcc-arm-none-eabi-7-2018-q2-update-linux/gcc-arm-none-eabi-7-2018-q2-update/bin/../lib/gcc/arm-none-eabi/7.3.1/../../../../arm-none-eabi/lib/thumb/v7e-m/fpv4-sp/hard/libc_nano.a(lib_a-stdio.o)
 .bss           0x0000000000000000        0x0 /home/abhishek/udoo/udoo-neo_custom_linux/m4/gcc-arm-none-eabi-7-2018-q2-update-linux/gcc-arm-none-eabi-7-2018-q2-update/bin/../lib/gcc/arm-none-eabi/7.3.1/../../../../arm-none-eabi/lib/thumb/v7e-m/fpv4-sp/hard/libc_nano.a(lib_a-stdio.o)
 .text.__seofread
                0x0000000000000000        0x4 /home/abhishek/udoo/udoo-neo_custom_linux/m4/gcc-arm-none-eabi-7-2018-q2-update-linux/gcc-arm-none-eabi-7-2018-q2-update/bin/../lib/gcc/arm-none-eabi/7.3.1/../../../../arm-none-eabi/lib/thumb/v7e-m/fpv4-sp/hard/libc_nano.a(lib_a-stdio.o)
 .text          0x0000000000000000        0x0 /home/abhishek/udoo/udoo-neo_custom_linux/m4/gcc-arm-none-eabi-7-2018-q2-update-linux/gcc-arm-none-eabi-7-2018-q2-update/bin/../lib/gcc/arm-none-eabi/7.3.1/../../../../arm-none-eabi/lib/thumb/v7e-m/fpv4-sp/hard/libc_nano.a(lib_a-writer.o)
 .data          0x0000000000000000        0x0 /home/abhishek/udoo/udoo-neo_custom_linux/m4/gcc-arm-none-eabi-7-2018-q2-update-linux/gcc-arm-none-eabi-7-2018-q2-update/bin/../lib/gcc/arm-none-eabi/7.3.1/../../../../arm-none-eabi/lib/thumb/v7e-m/fpv4-sp/hard/libc_nano.a(lib_a-writer.o)
 .bss           0x0000000000000000        0x0 /home/abhishek/udoo/udoo-neo_custom_linux/m4/gcc-arm-none-eabi-7-2018-q2-update-linux/gcc-arm-none-eabi-7-2018-q2-update/bin/../lib/gcc/arm-none-eabi/7.3.1/../../../../arm-none-eabi/lib/thumb/v7e-m/fpv4-sp/hard/libc_nano.a(lib_a-writer.o)
 .text          0x0000000000000000        0x0 /home/abhishek/udoo/udoo-neo_custom_linux/m4/gcc-arm-none-eabi-7-2018-q2-update-linux/gcc-arm-none-eabi-7-2018-q2-update/bin/../lib/gcc/arm-none-eabi/7.3.1/../../../../arm-none-eabi/lib/thumb/v7e-m/fpv4-sp/hard/libc_nano.a(lib_a-closer.o)
 .data          0x0000000000000000        0x0 /home/abhishek/udoo/udoo-neo_custom_linux/m4/gcc-arm-none-eabi-7-2018-q2-update-linux/gcc-arm-none-eabi-7-2018-q2-update/bin/../lib/gcc/arm-none-eabi/7.3.1/../../../../arm-none-eabi/lib/thumb/v7e-m/fpv4-sp/hard/libc_nano.a(lib_a-closer.o)
 .bss           0x0000000000000000        0x0 /home/abhishek/udoo/udoo-neo_custom_linux/m4/gcc-arm-none-eabi-7-2018-q2-update-linux/gcc-arm-none-eabi-7-2018-q2-update/bin/../lib/gcc/arm-none-eabi/7.3.1/../../../../arm-none-eabi/lib/thumb/v7e-m/fpv4-sp/hard/libc_nano.a(lib_a-closer.o)
 .text          0x0000000000000000        0x0 /home/abhishek/udoo/udoo-neo_custom_linux/m4/gcc-arm-none-eabi-7-2018-q2-update-linux/gcc-arm-none-eabi-7-2018-q2-update/bin/../lib/gcc/arm-none-eabi/7.3.1/../../../../arm-none-eabi/lib/thumb/v7e-m/fpv4-sp/hard/libc_nano.a(lib_a-fstatr.o)
 .data          0x0000000000000000        0x0 /home/abhishek/udoo/udoo-neo_custom_linux/m4/gcc-arm-none-eabi-7-2018-q2-update-linux/gcc-arm-none-eabi-7-2018-q2-update/bin/../lib/gcc/arm-none-eabi/7.3.1/../../../../arm-none-eabi/lib/thumb/v7e-m/fpv4-sp/hard/libc_nano.a(lib_a-fstatr.o)
 .bss           0x0000000000000000        0x0 /home/abhishek/udoo/udoo-neo_custom_linux/m4/gcc-arm-none-eabi-7-2018-q2-update-linux/gcc-arm-none-eabi-7-2018-q2-update/bin/../lib/gcc/arm-none-eabi/7.3.1/../../../../arm-none-eabi/lib/thumb/v7e-m/fpv4-sp/hard/libc_nano.a(lib_a-fstatr.o)
 .text          0x0000000000000000        0x0 /home/abhishek/udoo/udoo-neo_custom_linux/m4/gcc-arm-none-eabi-7-2018-q2-update-linux/gcc-arm-none-eabi-7-2018-q2-update/bin/../lib/gcc/arm-none-eabi/7.3.1/../../../../arm-none-eabi/lib/thumb/v7e-m/fpv4-sp/hard/libc_nano.a(lib_a-isattyr.o)
 .data          0x0000000000000000        0x0 /home/abhishek/udoo/udoo-neo_custom_linux/m4/gcc-arm-none-eabi-7-2018-q2-update-linux/gcc-arm-none-eabi-7-2018-q2-update/bin/../lib/gcc/arm-none-eabi/7.3.1/../../../../arm-none-eabi/lib/thumb/v7e-m/fpv4-sp/hard/libc_nano.a(lib_a-isattyr.o)
 .bss           0x0000000000000000        0x0 /home/abhishek/udoo/udoo-neo_custom_linux/m4/gcc-arm-none-eabi-7-2018-q2-update-linux/gcc-arm-none-eabi-7-2018-q2-update/bin/../lib/gcc/arm-none-eabi/7.3.1/../../../../arm-none-eabi/lib/thumb/v7e-m/fpv4-sp/hard/libc_nano.a(lib_a-isattyr.o)
 .text          0x0000000000000000        0x0 /home/abhishek/udoo/udoo-neo_custom_linux/m4/gcc-arm-none-eabi-7-2018-q2-update-linux/gcc-arm-none-eabi-7-2018-q2-update/bin/../lib/gcc/arm-none-eabi/7.3.1/../../../../arm-none-eabi/lib/thumb/v7e-m/fpv4-sp/hard/libc_nano.a(lib_a-lseekr.o)
 .data          0x0000000000000000        0x0 /home/abhishek/udoo/udoo-neo_custom_linux/m4/gcc-arm-none-eabi-7-2018-q2-update-linux/gcc-arm-none-eabi-7-2018-q2-update/bin/../lib/gcc/arm-none-eabi/7.3.1/../../../../arm-none-eabi/lib/thumb/v7e-m/fpv4-sp/hard/libc_nano.a(lib_a-lseekr.o)
 .bss           0x0000000000000000        0x0 /home/abhishek/udoo/udoo-neo_custom_linux/m4/gcc-arm-none-eabi-7-2018-q2-update-linux/gcc-arm-none-eabi-7-2018-q2-update/bin/../lib/gcc/arm-none-eabi/7.3.1/../../../../arm-none-eabi/lib/thumb/v7e-m/fpv4-sp/hard/libc_nano.a(lib_a-lseekr.o)
 .text          0x0000000000000000        0x0 /home/abhishek/udoo/udoo-neo_custom_linux/m4/gcc-arm-none-eabi-7-2018-q2-update-linux/gcc-arm-none-eabi-7-2018-q2-update/bin/../lib/gcc/arm-none-eabi/7.3.1/../../../../arm-none-eabi/lib/thumb/v7e-m/fpv4-sp/hard/libc_nano.a(lib_a-mlock.o)
 .data          0x0000000000000000        0x0 /home/abhishek/udoo/udoo-neo_custom_linux/m4/gcc-arm-none-eabi-7-2018-q2-update-linux/gcc-arm-none-eabi-7-2018-q2-update/bin/../lib/gcc/arm-none-eabi/7.3.1/../../../../arm-none-eabi/lib/thumb/v7e-m/fpv4-sp/hard/libc_nano.a(lib_a-mlock.o)
 .bss           0x0000000000000000        0x0 /home/abhishek/udoo/udoo-neo_custom_linux/m4/gcc-arm-none-eabi-7-2018-q2-update-linux/gcc-arm-none-eabi-7-2018-q2-update/bin/../lib/gcc/arm-none-eabi/7.3.1/../../../../arm-none-eabi/lib/thumb/v7e-m/fpv4-sp/hard/libc_nano.a(lib_a-mlock.o)
 .text          0x0000000000000000        0x0 /home/abhishek/udoo/udoo-neo_custom_linux/m4/gcc-arm-none-eabi-7-2018-q2-update-linux/gcc-arm-none-eabi-7-2018-q2-update/bin/../lib/gcc/arm-none-eabi/7.3.1/../../../../arm-none-eabi/lib/thumb/v7e-m/fpv4-sp/hard/libc_nano.a(lib_a-nano-msizer.o)
 .data          0x0000000000000000        0x0 /home/abhishek/udoo/udoo-neo_custom_linux/m4/gcc-arm-none-eabi-7-2018-q2-update-linux/gcc-arm-none-eabi-7-2018-q2-update/bin/../lib/gcc/arm-none-eabi/7.3.1/../../../../arm-none-eabi/lib/thumb/v7e-m/fpv4-sp/hard/libc_nano.a(lib_a-nano-msizer.o)
 .bss           0x0000000000000000        0x0 /home/abhishek/udoo/udoo-neo_custom_linux/m4/gcc-arm-none-eabi-7-2018-q2-update-linux/gcc-arm-none-eabi-7-2018-q2-update/bin/../lib/gcc/arm-none-eabi/7.3.1/../../../../arm-none-eabi/lib/thumb/v7e-m/fpv4-sp/hard/libc_nano.a(lib_a-nano-msizer.o)
 .text._malloc_usable_size_r
                0x0000000000000000       0x10 /home/abhishek/udoo/udoo-neo_custom_linux/m4/gcc-arm-none-eabi-7-2018-q2-update-linux/gcc-arm-none-eabi-7-2018-q2-update/bin/../lib/gcc/arm-none-eabi/7.3.1/../../../../arm-none-eabi/lib/thumb/v7e-m/fpv4-sp/hard/libc_nano.a(lib_a-nano-msizer.o)
 .debug_frame   0x0000000000000000       0x20 /home/abhishek/udoo/udoo-neo_custom_linux/m4/gcc-arm-none-eabi-7-2018-q2-update-linux/gcc-arm-none-eabi-7-2018-q2-update/bin/../lib/gcc/arm-none-eabi/7.3.1/../../../../arm-none-eabi/lib/thumb/v7e-m/fpv4-sp/hard/libc_nano.a(lib_a-nano-msizer.o)
 .ARM.attributes
                0x0000000000000000       0x34 /home/abhishek/udoo/udoo-neo_custom_linux/m4/gcc-arm-none-eabi-7-2018-q2-update-linux/gcc-arm-none-eabi-7-2018-q2-update/bin/../lib/gcc/arm-none-eabi/7.3.1/../../../../arm-none-eabi/lib/thumb/v7e-m/fpv4-sp/hard/libc_nano.a(lib_a-nano-msizer.o)
 .text          0x0000000000000000        0x0 /home/abhishek/udoo/udoo-neo_custom_linux/m4/gcc-arm-none-eabi-7-2018-q2-update-linux/gcc-arm-none-eabi-7-2018-q2-update/bin/../lib/gcc/arm-none-eabi/7.3.1/../../../../arm-none-eabi/lib/thumb/v7e-m/fpv4-sp/hard/libc_nano.a(lib_a-readr.o)
 .data          0x0000000000000000        0x0 /home/abhishek/udoo/udoo-neo_custom_linux/m4/gcc-arm-none-eabi-7-2018-q2-update-linux/gcc-arm-none-eabi-7-2018-q2-update/bin/../lib/gcc/arm-none-eabi/7.3.1/../../../../arm-none-eabi/lib/thumb/v7e-m/fpv4-sp/hard/libc_nano.a(lib_a-readr.o)
 .bss           0x0000000000000000        0x0 /home/abhishek/udoo/udoo-neo_custom_linux/m4/gcc-arm-none-eabi-7-2018-q2-update-linux/gcc-arm-none-eabi-7-2018-q2-update/bin/../lib/gcc/arm-none-eabi/7.3.1/../../../../arm-none-eabi/lib/thumb/v7e-m/fpv4-sp/hard/libc_nano.a(lib_a-readr.o)
 .text          0x0000000000000000        0x0 /home/abhishek/udoo/udoo-neo_custom_linux/m4/gcc-arm-none-eabi-7-2018-q2-update-linux/gcc-arm-none-eabi-7-2018-q2-update/bin/../lib/gcc/arm-none-eabi/7.3.1/../../../../arm-none-eabi/lib/thumb/v7e-m/fpv4-sp/hard/libc_nano.a(lib_a-reent.o)
 .data          0x0000000000000000        0x0 /home/abhishek/udoo/udoo-neo_custom_linux/m4/gcc-arm-none-eabi-7-2018-q2-update-linux/gcc-arm-none-eabi-7-2018-q2-update/bin/../lib/gcc/arm-none-eabi/7.3.1/../../../../arm-none-eabi/lib/thumb/v7e-m/fpv4-sp/hard/libc_nano.a(lib_a-reent.o)
 .bss           0x0000000000000000        0x0 /home/abhishek/udoo/udoo-neo_custom_linux/m4/gcc-arm-none-eabi-7-2018-q2-update-linux/gcc-arm-none-eabi-7-2018-q2-update/bin/../lib/gcc/arm-none-eabi/7.3.1/../../../../arm-none-eabi/lib/thumb/v7e-m/fpv4-sp/hard/libc_nano.a(lib_a-reent.o)
 .text.cleanup_glue
                0x0000000000000000       0x1a /home/abhishek/udoo/udoo-neo_custom_linux/m4/gcc-arm-none-eabi-7-2018-q2-update-linux/gcc-arm-none-eabi-7-2018-q2-update/bin/../lib/gcc/arm-none-eabi/7.3.1/../../../../arm-none-eabi/lib/thumb/v7e-m/fpv4-sp/hard/libc_nano.a(lib_a-reent.o)
 .text._reclaim_reent
                0x0000000000000000       0xb8 /home/abhishek/udoo/udoo-neo_custom_linux/m4/gcc-arm-none-eabi-7-2018-q2-update-linux/gcc-arm-none-eabi-7-2018-q2-update/bin/../lib/gcc/arm-none-eabi/7.3.1/../../../../arm-none-eabi/lib/thumb/v7e-m/fpv4-sp/hard/libc_nano.a(lib_a-reent.o)
 .text          0x0000000000000000       0xa0 /home/abhishek/udoo/udoo-neo_custom_linux/m4/gcc-arm-none-eabi-7-2018-q2-update-linux/gcc-arm-none-eabi-7-2018-q2-update/bin/../lib/gcc/arm-none-eabi/7.3.1/thumb/v7e-m/fpv4-sp/hard/libgcc.a(_aeabi_ldivmod.o)
 .data          0x0000000000000000        0x0 /home/abhishek/udoo/udoo-neo_custom_linux/m4/gcc-arm-none-eabi-7-2018-q2-update-linux/gcc-arm-none-eabi-7-2018-q2-update/bin/../lib/gcc/arm-none-eabi/7.3.1/thumb/v7e-m/fpv4-sp/hard/libgcc.a(_aeabi_ldivmod.o)
 .bss           0x0000000000000000        0x0 /home/abhishek/udoo/udoo-neo_custom_linux/m4/gcc-arm-none-eabi-7-2018-q2-update-linux/gcc-arm-none-eabi-7-2018-q2-update/bin/../lib/gcc/arm-none-eabi/7.3.1/thumb/v7e-m/fpv4-sp/hard/libgcc.a(_aeabi_ldivmod.o)
 .debug_frame   0x0000000000000000       0x44 /home/abhishek/udoo/udoo-neo_custom_linux/m4/gcc-arm-none-eabi-7-2018-q2-update-linux/gcc-arm-none-eabi-7-2018-q2-update/bin/../lib/gcc/arm-none-eabi/7.3.1/thumb/v7e-m/fpv4-sp/hard/libgcc.a(_aeabi_ldivmod.o)
 .ARM.attributes
                0x0000000000000000       0x22 /home/abhishek/udoo/udoo-neo_custom_linux/m4/gcc-arm-none-eabi-7-2018-q2-update-linux/gcc-arm-none-eabi-7-2018-q2-update/bin/../lib/gcc/arm-none-eabi/7.3.1/thumb/v7e-m/fpv4-sp/hard/libgcc.a(_aeabi_ldivmod.o)
 .text          0x0000000000000000       0x30 /home/abhishek/udoo/udoo-neo_custom_linux/m4/gcc-arm-none-eabi-7-2018-q2-update-linux/gcc-arm-none-eabi-7-2018-q2-update/bin/../lib/gcc/arm-none-eabi/7.3.1/thumb/v7e-m/fpv4-sp/hard/libgcc.a(_aeabi_uldivmod.o)
 .data          0x0000000000000000        0x0 /home/abhishek/udoo/udoo-neo_custom_linux/m4/gcc-arm-none-eabi-7-2018-q2-update-linux/gcc-arm-none-eabi-7-2018-q2-update/bin/../lib/gcc/arm-none-eabi/7.3.1/thumb/v7e-m/fpv4-sp/hard/libgcc.a(_aeabi_uldivmod.o)
 .bss           0x0000000000000000        0x0 /home/abhishek/udoo/udoo-neo_custom_linux/m4/gcc-arm-none-eabi-7-2018-q2-update-linux/gcc-arm-none-eabi-7-2018-q2-update/bin/../lib/gcc/arm-none-eabi/7.3.1/thumb/v7e-m/fpv4-sp/hard/libgcc.a(_aeabi_uldivmod.o)
 .debug_frame   0x0000000000000000       0x2c /home/abhishek/udoo/udoo-neo_custom_linux/m4/gcc-arm-none-eabi-7-2018-q2-update-linux/gcc-arm-none-eabi-7-2018-q2-update/bin/../lib/gcc/arm-none-eabi/7.3.1/thumb/v7e-m/fpv4-sp/hard/libgcc.a(_aeabi_uldivmod.o)
 .ARM.attributes
                0x0000000000000000       0x22 /home/abhishek/udoo/udoo-neo_custom_linux/m4/gcc-arm-none-eabi-7-2018-q2-update-linux/gcc-arm-none-eabi-7-2018-q2-update/bin/../lib/gcc/arm-none-eabi/7.3.1/thumb/v7e-m/fpv4-sp/hard/libgcc.a(_aeabi_uldivmod.o)
 .text          0x0000000000000000      0x2cc /home/abhishek/udoo/udoo-neo_custom_linux/m4/gcc-arm-none-eabi-7-2018-q2-update-linux/gcc-arm-none-eabi-7-2018-q2-update/bin/../lib/gcc/arm-none-eabi/7.3.1/thumb/v7e-m/fpv4-sp/hard/libgcc.a(_udivmoddi4.o)
 .data          0x0000000000000000        0x0 /home/abhishek/udoo/udoo-neo_custom_linux/m4/gcc-arm-none-eabi-7-2018-q2-update-linux/gcc-arm-none-eabi-7-2018-q2-update/bin/../lib/gcc/arm-none-eabi/7.3.1/thumb/v7e-m/fpv4-sp/hard/libgcc.a(_udivmoddi4.o)
 .bss           0x0000000000000000        0x0 /home/abhishek/udoo/udoo-neo_custom_linux/m4/gcc-arm-none-eabi-7-2018-q2-update-linux/gcc-arm-none-eabi-7-2018-q2-update/bin/../lib/gcc/arm-none-eabi/7.3.1/thumb/v7e-m/fpv4-sp/hard/libgcc.a(_udivmoddi4.o)
 .ARM.extab     0x0000000000000000        0x0 /home/abhishek/udoo/udoo-neo_custom_linux/m4/gcc-arm-none-eabi-7-2018-q2-update-linux/gcc-arm-none-eabi-7-2018-q2-update/bin/../lib/gcc/arm-none-eabi/7.3.1/thumb/v7e-m/fpv4-sp/hard/libgcc.a(_udivmoddi4.o)
 .ARM.exidx     0x0000000000000000        0x8 /home/abhishek/udoo/udoo-neo_custom_linux/m4/gcc-arm-none-eabi-7-2018-q2-update-linux/gcc-arm-none-eabi-7-2018-q2-update/bin/../lib/gcc/arm-none-eabi/7.3.1/thumb/v7e-m/fpv4-sp/hard/libgcc.a(_udivmoddi4.o)
 .debug_frame   0x0000000000000000       0x34 /home/abhishek/udoo/udoo-neo_custom_linux/m4/gcc-arm-none-eabi-7-2018-q2-update-linux/gcc-arm-none-eabi-7-2018-q2-update/bin/../lib/gcc/arm-none-eabi/7.3.1/thumb/v7e-m/fpv4-sp/hard/libgcc.a(_udivmoddi4.o)
 .ARM.attributes
                0x0000000000000000       0x34 /home/abhishek/udoo/udoo-neo_custom_linux/m4/gcc-arm-none-eabi-7-2018-q2-update-linux/gcc-arm-none-eabi-7-2018-q2-update/bin/../lib/gcc/arm-none-eabi/7.3.1/thumb/v7e-m/fpv4-sp/hard/libgcc.a(_udivmoddi4.o)
 .text          0x0000000000000000        0x4 /home/abhishek/udoo/udoo-neo_custom_linux/m4/gcc-arm-none-eabi-7-2018-q2-update-linux/gcc-arm-none-eabi-7-2018-q2-update/bin/../lib/gcc/arm-none-eabi/7.3.1/thumb/v7e-m/fpv4-sp/hard/libgcc.a(_dvmd_tls.o)
 .data          0x0000000000000000        0x0 /home/abhishek/udoo/udoo-neo_custom_linux/m4/gcc-arm-none-eabi-7-2018-q2-update-linux/gcc-arm-none-eabi-7-2018-q2-update/bin/../lib/gcc/arm-none-eabi/7.3.1/thumb/v7e-m/fpv4-sp/hard/libgcc.a(_dvmd_tls.o)
 .bss           0x0000000000000000        0x0 /home/abhishek/udoo/udoo-neo_custom_linux/m4/gcc-arm-none-eabi-7-2018-q2-update-linux/gcc-arm-none-eabi-7-2018-q2-update/bin/../lib/gcc/arm-none-eabi/7.3.1/thumb/v7e-m/fpv4-sp/hard/libgcc.a(_dvmd_tls.o)
 .ARM.attributes
                0x0000000000000000       0x22 /home/abhishek/udoo/udoo-neo_custom_linux/m4/gcc-arm-none-eabi-7-2018-q2-update-linux/gcc-arm-none-eabi-7-2018-q2-update/bin/../lib/gcc/arm-none-eabi/7.3.1/thumb/v7e-m/fpv4-sp/hard/libgcc.a(_dvmd_tls.o)
 .text          0x0000000000000000        0x0 /home/abhishek/udoo/udoo-neo_custom_linux/m4/gcc-arm-none-eabi-7-2018-q2-update-linux/gcc-arm-none-eabi-7-2018-q2-update/bin/../lib/gcc/arm-none-eabi/7.3.1/../../../../arm-none-eabi/lib/thumb/v7e-m/fpv4-sp/hard/libnosys.a(close.o)
 .data          0x0000000000000000        0x0 /home/abhishek/udoo/udoo-neo_custom_linux/m4/gcc-arm-none-eabi-7-2018-q2-update-linux/gcc-arm-none-eabi-7-2018-q2-update/bin/../lib/gcc/arm-none-eabi/7.3.1/../../../../arm-none-eabi/lib/thumb/v7e-m/fpv4-sp/hard/libnosys.a(close.o)
 .bss           0x0000000000000000        0x0 /home/abhishek/udoo/udoo-neo_custom_linux/m4/gcc-arm-none-eabi-7-2018-q2-update-linux/gcc-arm-none-eabi-7-2018-q2-update/bin/../lib/gcc/arm-none-eabi/7.3.1/../../../../arm-none-eabi/lib/thumb/v7e-m/fpv4-sp/hard/libnosys.a(close.o)
 .text          0x0000000000000000        0x0 /home/abhishek/udoo/udoo-neo_custom_linux/m4/gcc-arm-none-eabi-7-2018-q2-update-linux/gcc-arm-none-eabi-7-2018-q2-update/bin/../lib/gcc/arm-none-eabi/7.3.1/../../../../arm-none-eabi/lib/thumb/v7e-m/fpv4-sp/hard/libnosys.a(fstat.o)
 .data          0x0000000000000000        0x0 /home/abhishek/udoo/udoo-neo_custom_linux/m4/gcc-arm-none-eabi-7-2018-q2-update-linux/gcc-arm-none-eabi-7-2018-q2-update/bin/../lib/gcc/arm-none-eabi/7.3.1/../../../../arm-none-eabi/lib/thumb/v7e-m/fpv4-sp/hard/libnosys.a(fstat.o)
 .bss           0x0000000000000000        0x0 /home/abhishek/udoo/udoo-neo_custom_linux/m4/gcc-arm-none-eabi-7-2018-q2-update-linux/gcc-arm-none-eabi-7-2018-q2-update/bin/../lib/gcc/arm-none-eabi/7.3.1/../../../../arm-none-eabi/lib/thumb/v7e-m/fpv4-sp/hard/libnosys.a(fstat.o)
 .text          0x0000000000000000        0x0 /home/abhishek/udoo/udoo-neo_custom_linux/m4/gcc-arm-none-eabi-7-2018-q2-update-linux/gcc-arm-none-eabi-7-2018-q2-update/bin/../lib/gcc/arm-none-eabi/7.3.1/../../../../arm-none-eabi/lib/thumb/v7e-m/fpv4-sp/hard/libnosys.a(getpid.o)
 .data          0x0000000000000000        0x0 /home/abhishek/udoo/udoo-neo_custom_linux/m4/gcc-arm-none-eabi-7-2018-q2-update-linux/gcc-arm-none-eabi-7-2018-q2-update/bin/../lib/gcc/arm-none-eabi/7.3.1/../../../../arm-none-eabi/lib/thumb/v7e-m/fpv4-sp/hard/libnosys.a(getpid.o)
 .bss           0x0000000000000000        0x0 /home/abhishek/udoo/udoo-neo_custom_linux/m4/gcc-arm-none-eabi-7-2018-q2-update-linux/gcc-arm-none-eabi-7-2018-q2-update/bin/../lib/gcc/arm-none-eabi/7.3.1/../../../../arm-none-eabi/lib/thumb/v7e-m/fpv4-sp/hard/libnosys.a(getpid.o)
 .text          0x0000000000000000        0x0 /home/abhishek/udoo/udoo-neo_custom_linux/m4/gcc-arm-none-eabi-7-2018-q2-update-linux/gcc-arm-none-eabi-7-2018-q2-update/bin/../lib/gcc/arm-none-eabi/7.3.1/../../../../arm-none-eabi/lib/thumb/v7e-m/fpv4-sp/hard/libnosys.a(isatty.o)
 .data          0x0000000000000000        0x0 /home/abhishek/udoo/udoo-neo_custom_linux/m4/gcc-arm-none-eabi-7-2018-q2-update-linux/gcc-arm-none-eabi-7-2018-q2-update/bin/../lib/gcc/arm-none-eabi/7.3.1/../../../../arm-none-eabi/lib/thumb/v7e-m/fpv4-sp/hard/libnosys.a(isatty.o)
 .bss           0x0000000000000000        0x0 /home/abhishek/udoo/udoo-neo_custom_linux/m4/gcc-arm-none-eabi-7-2018-q2-update-linux/gcc-arm-none-eabi-7-2018-q2-update/bin/../lib/gcc/arm-none-eabi/7.3.1/../../../../arm-none-eabi/lib/thumb/v7e-m/fpv4-sp/hard/libnosys.a(isatty.o)
 .text          0x0000000000000000        0x0 /home/abhishek/udoo/udoo-neo_custom_linux/m4/gcc-arm-none-eabi-7-2018-q2-update-linux/gcc-arm-none-eabi-7-2018-q2-update/bin/../lib/gcc/arm-none-eabi/7.3.1/../../../../arm-none-eabi/lib/thumb/v7e-m/fpv4-sp/hard/libnosys.a(kill.o)
 .data          0x0000000000000000        0x0 /home/abhishek/udoo/udoo-neo_custom_linux/m4/gcc-arm-none-eabi-7-2018-q2-update-linux/gcc-arm-none-eabi-7-2018-q2-update/bin/../lib/gcc/arm-none-eabi/7.3.1/../../../../arm-none-eabi/lib/thumb/v7e-m/fpv4-sp/hard/libnosys.a(kill.o)
 .bss           0x0000000000000000        0x0 /home/abhishek/udoo/udoo-neo_custom_linux/m4/gcc-arm-none-eabi-7-2018-q2-update-linux/gcc-arm-none-eabi-7-2018-q2-update/bin/../lib/gcc/arm-none-eabi/7.3.1/../../../../arm-none-eabi/lib/thumb/v7e-m/fpv4-sp/hard/libnosys.a(kill.o)
 .text          0x0000000000000000        0x0 /home/abhishek/udoo/udoo-neo_custom_linux/m4/gcc-arm-none-eabi-7-2018-q2-update-linux/gcc-arm-none-eabi-7-2018-q2-update/bin/../lib/gcc/arm-none-eabi/7.3.1/../../../../arm-none-eabi/lib/thumb/v7e-m/fpv4-sp/hard/libnosys.a(lseek.o)
 .data          0x0000000000000000        0x0 /home/abhishek/udoo/udoo-neo_custom_linux/m4/gcc-arm-none-eabi-7-2018-q2-update-linux/gcc-arm-none-eabi-7-2018-q2-update/bin/../lib/gcc/arm-none-eabi/7.3.1/../../../../arm-none-eabi/lib/thumb/v7e-m/fpv4-sp/hard/libnosys.a(lseek.o)
 .bss           0x0000000000000000        0x0 /home/abhishek/udoo/udoo-neo_custom_linux/m4/gcc-arm-none-eabi-7-2018-q2-update-linux/gcc-arm-none-eabi-7-2018-q2-update/bin/../lib/gcc/arm-none-eabi/7.3.1/../../../../arm-none-eabi/lib/thumb/v7e-m/fpv4-sp/hard/libnosys.a(lseek.o)
 .text          0x0000000000000000        0x0 /home/abhishek/udoo/udoo-neo_custom_linux/m4/gcc-arm-none-eabi-7-2018-q2-update-linux/gcc-arm-none-eabi-7-2018-q2-update/bin/../lib/gcc/arm-none-eabi/7.3.1/../../../../arm-none-eabi/lib/thumb/v7e-m/fpv4-sp/hard/libnosys.a(sbrk.o)
 .data          0x0000000000000000        0x0 /home/abhishek/udoo/udoo-neo_custom_linux/m4/gcc-arm-none-eabi-7-2018-q2-update-linux/gcc-arm-none-eabi-7-2018-q2-update/bin/../lib/gcc/arm-none-eabi/7.3.1/../../../../arm-none-eabi/lib/thumb/v7e-m/fpv4-sp/hard/libnosys.a(sbrk.o)
 .bss           0x0000000000000000        0x0 /home/abhishek/udoo/udoo-neo_custom_linux/m4/gcc-arm-none-eabi-7-2018-q2-update-linux/gcc-arm-none-eabi-7-2018-q2-update/bin/../lib/gcc/arm-none-eabi/7.3.1/../../../../arm-none-eabi/lib/thumb/v7e-m/fpv4-sp/hard/libnosys.a(sbrk.o)
 .text          0x0000000000000000        0x0 /home/abhishek/udoo/udoo-neo_custom_linux/m4/gcc-arm-none-eabi-7-2018-q2-update-linux/gcc-arm-none-eabi-7-2018-q2-update/bin/../lib/gcc/arm-none-eabi/7.3.1/../../../../arm-none-eabi/lib/thumb/v7e-m/fpv4-sp/hard/libnosys.a(_exit.o)
 .data          0x0000000000000000        0x0 /home/abhishek/udoo/udoo-neo_custom_linux/m4/gcc-arm-none-eabi-7-2018-q2-update-linux/gcc-arm-none-eabi-7-2018-q2-update/bin/../lib/gcc/arm-none-eabi/7.3.1/../../../../arm-none-eabi/lib/thumb/v7e-m/fpv4-sp/hard/libnosys.a(_exit.o)
 .bss           0x0000000000000000        0x0 /home/abhishek/udoo/udoo-neo_custom_linux/m4/gcc-arm-none-eabi-7-2018-q2-update-linux/gcc-arm-none-eabi-7-2018-q2-update/bin/../lib/gcc/arm-none-eabi/7.3.1/../../../../arm-none-eabi/lib/thumb/v7e-m/fpv4-sp/hard/libnosys.a(_exit.o)
 .text          0x0000000000000000        0x0 /home/abhishek/udoo/udoo-neo_custom_linux/m4/gcc-arm-none-eabi-7-2018-q2-update-linux/gcc-arm-none-eabi-7-2018-q2-update/bin/../lib/gcc/arm-none-eabi/7.3.1/thumb/v7e-m/fpv4-sp/hard/crtend.o
 .data          0x0000000000000000        0x0 /home/abhishek/udoo/udoo-neo_custom_linux/m4/gcc-arm-none-eabi-7-2018-q2-update-linux/gcc-arm-none-eabi-7-2018-q2-update/bin/../lib/gcc/arm-none-eabi/7.3.1/thumb/v7e-m/fpv4-sp/hard/crtend.o
 .bss           0x0000000000000000        0x0 /home/abhishek/udoo/udoo-neo_custom_linux/m4/gcc-arm-none-eabi-7-2018-q2-update-linux/gcc-arm-none-eabi-7-2018-q2-update/bin/../lib/gcc/arm-none-eabi/7.3.1/thumb/v7e-m/fpv4-sp/hard/crtend.o
 .eh_frame      0x0000000000000000        0x4 /home/abhishek/udoo/udoo-neo_custom_linux/m4/gcc-arm-none-eabi-7-2018-q2-update-linux/gcc-arm-none-eabi-7-2018-q2-update/bin/../lib/gcc/arm-none-eabi/7.3.1/thumb/v7e-m/fpv4-sp/hard/crtend.o
 .ARM.attributes
                0x0000000000000000       0x34 /home/abhishek/udoo/udoo-neo_custom_linux/m4/gcc-arm-none-eabi-7-2018-q2-update-linux/gcc-arm-none-eabi-7-2018-q2-update/bin/../lib/gcc/arm-none-eabi/7.3.1/thumb/v7e-m/fpv4-sp/hard/crtend.o
 .text          0x0000000000000000        0x0 /home/abhishek/udoo/udoo-neo_custom_linux/m4/gcc-arm-none-eabi-7-2018-q2-update-linux/gcc-arm-none-eabi-7-2018-q2-update/bin/../lib/gcc/arm-none-eabi/7.3.1/thumb/v7e-m/fpv4-sp/hard/crtn.o
 .data          0x0000000000000000        0x0 /home/abhishek/udoo/udoo-neo_custom_linux/m4/gcc-arm-none-eabi-7-2018-q2-update-linux/gcc-arm-none-eabi-7-2018-q2-update/bin/../lib/gcc/arm-none-eabi/7.3.1/thumb/v7e-m/fpv4-sp/hard/crtn.o
 .bss           0x0000000000000000        0x0 /home/abhishek/udoo/udoo-neo_custom_linux/m4/gcc-arm-none-eabi-7-2018-q2-update-linux/gcc-arm-none-eabi-7-2018-q2-update/bin/../lib/gcc/arm-none-eabi/7.3.1/thumb/v7e-m/fpv4-sp/hard/crtn.o

Memory Configuration

Name             Origin             Length             Attributes
m_interrupts     0x000000001fff8000 0x0000000000000240 xr
m_text           0x000000001fff8240 0x0000000000007dc0 xr
m_data           0x0000000020000000 0x0000000000008000 rw
*default*        0x0000000000000000 0xffffffffffffffff

Linker script and memory map

LOAD /home/abhishek/udoo/udoo-neo_custom_linux/m4/gcc-arm-none-eabi-7-2018-q2-update-linux/gcc-arm-none-eabi-7-2018-q2-update/bin/../lib/gcc/arm-none-eabi/7.3.1/thumb/v7e-m/fpv4-sp/hard/crti.o
LOAD /home/abhishek/udoo/udoo-neo_custom_linux/m4/gcc-arm-none-eabi-7-2018-q2-update-linux/gcc-arm-none-eabi-7-2018-q2-update/bin/../lib/gcc/arm-none-eabi/7.3.1/thumb/v7e-m/fpv4-sp/hard/crtbegin.o
LOAD /home/abhishek/udoo/udoo-neo_custom_linux/m4/gcc-arm-none-eabi-7-2018-q2-update-linux/gcc-arm-none-eabi-7-2018-q2-update/bin/../lib/gcc/arm-none-eabi/7.3.1/../../../../arm-none-eabi/lib/thumb/v7e-m/fpv4-sp/hard/crt0.o
LOAD /home/abhishek/udoo/udoo-neo_custom_linux/m4/gcc-arm-none-eabi-7-2018-q2-update-linux/gcc-arm-none-eabi-7-2018-q2-update/bin/../lib/gcc/arm-none-eabi/7.3.1/../../../../arm-none-eabi/lib/thumb/v7e-m/fpv4-sp/hard/libm.a
LOAD CMakeFiles/rpmsg_pingpong_freertos_example.dir/home/abhishek/udoo/udoo-neo_custom_linux/m4/FreeRTOS_BSP_1.0.1_iMX6SX/rtos/FreeRTOS/Source/portable/GCC/ARM_CM4F/port.c.obj
LOAD CMakeFiles/rpmsg_pingpong_freertos_example.dir/home/abhishek/udoo/udoo-neo_custom_linux/m4/FreeRTOS_BSP_1.0.1_iMX6SX/platform/devices/MCIMX6X/startup/gcc/startup_MCIMX6X_M4.S.obj
LOAD CMakeFiles/rpmsg_pingpong_freertos_example.dir/home/abhishek/udoo/udoo-neo_custom_linux/m4/FreeRTOS_BSP_1.0.1_iMX6SX/rtos/FreeRTOS/Source/portable/MemMang/heap_2.c.obj
LOAD CMakeFiles/rpmsg_pingpong_freertos_example.dir/home/abhishek/udoo/udoo-neo_custom_linux/m4/FreeRTOS_BSP_1.0.1_iMX6SX/examples/imx6sx_sdb_m4/demo_apps/rpmsg/pingpong_freertos/pingpong_freertos.c.obj
LOAD CMakeFiles/rpmsg_pingpong_freertos_example.dir/home/abhishek/udoo/udoo-neo_custom_linux/m4/FreeRTOS_BSP_1.0.1_iMX6SX/middleware/multicore/open-amp/rpmsg/rpmsg_rtos.c.obj
LOAD CMakeFiles/rpmsg_pingpong_freertos_example.dir/home/abhishek/udoo/udoo-neo_custom_linux/m4/FreeRTOS_BSP_1.0.1_iMX6SX/middleware/multicore/open-amp/porting/imx6sx_m4/platform.c.obj
LOAD CMakeFiles/rpmsg_pingpong_freertos_example.dir/home/abhishek/udoo/udoo-neo_custom_linux/m4/FreeRTOS_BSP_1.0.1_iMX6SX/middleware/multicore/open-amp/porting/imx6sx_m4/platform_info.c.obj
LOAD CMakeFiles/rpmsg_pingpong_freertos_example.dir/home/abhishek/udoo/udoo-neo_custom_linux/m4/FreeRTOS_BSP_1.0.1_iMX6SX/middleware/multicore/open-amp/common/hil/hil.c.obj
LOAD CMakeFiles/rpmsg_pingpong_freertos_example.dir/home/abhishek/udoo/udoo-neo_custom_linux/m4/FreeRTOS_BSP_1.0.1_iMX6SX/middleware/multicore/open-amp/common/llist/llist.c.obj
LOAD CMakeFiles/rpmsg_pingpong_freertos_example.dir/home/abhishek/udoo/udoo-neo_custom_linux/m4/FreeRTOS_BSP_1.0.1_iMX6SX/middleware/multicore/open-amp/common/shm/sh_mem.c.obj
LOAD CMakeFiles/rpmsg_pingpong_freertos_example.dir/home/abhishek/udoo/udoo-neo_custom_linux/m4/FreeRTOS_BSP_1.0.1_iMX6SX/middleware/multicore/open-amp/porting/config/config.c.obj
LOAD CMakeFiles/rpmsg_pingpong_freertos_example.dir/home/abhishek/udoo/udoo-neo_custom_linux/m4/FreeRTOS_BSP_1.0.1_iMX6SX/middleware/multicore/open-amp/rpmsg/remote_device.c.obj
LOAD CMakeFiles/rpmsg_pingpong_freertos_example.dir/home/abhishek/udoo/udoo-neo_custom_linux/m4/FreeRTOS_BSP_1.0.1_iMX6SX/middleware/multicore/open-amp/rpmsg/rpmsg.c.obj
LOAD CMakeFiles/rpmsg_pingpong_freertos_example.dir/home/abhishek/udoo/udoo-neo_custom_linux/m4/FreeRTOS_BSP_1.0.1_iMX6SX/middleware/multicore/open-amp/rpmsg/rpmsg_ext.c.obj
LOAD CMakeFiles/rpmsg_pingpong_freertos_example.dir/home/abhishek/udoo/udoo-neo_custom_linux/m4/FreeRTOS_BSP_1.0.1_iMX6SX/middleware/multicore/open-amp/rpmsg/rpmsg_core.c.obj
LOAD CMakeFiles/rpmsg_pingpong_freertos_example.dir/home/abhishek/udoo/udoo-neo_custom_linux/m4/FreeRTOS_BSP_1.0.1_iMX6SX/middleware/multicore/open-amp/virtio/virtio.c.obj
LOAD CMakeFiles/rpmsg_pingpong_freertos_example.dir/home/abhishek/udoo/udoo-neo_custom_linux/m4/FreeRTOS_BSP_1.0.1_iMX6SX/middleware/multicore/open-amp/virtio/virtqueue.c.obj
LOAD CMakeFiles/rpmsg_pingpong_freertos_example.dir/home/abhishek/udoo/udoo-neo_custom_linux/m4/FreeRTOS_BSP_1.0.1_iMX6SX/middleware/multicore/open-amp/porting/env/freertos/rpmsg_porting.c.obj
LOAD CMakeFiles/rpmsg_pingpong_freertos_example.dir/home/abhishek/udoo/udoo-neo_custom_linux/m4/FreeRTOS_BSP_1.0.1_iMX6SX/rtos/FreeRTOS/Source/croutine.c.obj
LOAD CMakeFiles/rpmsg_pingpong_freertos_example.dir/home/abhishek/udoo/udoo-neo_custom_linux/m4/FreeRTOS_BSP_1.0.1_iMX6SX/rtos/FreeRTOS/Source/event_groups.c.obj
LOAD CMakeFiles/rpmsg_pingpong_freertos_example.dir/home/abhishek/udoo/udoo-neo_custom_linux/m4/FreeRTOS_BSP_1.0.1_iMX6SX/rtos/FreeRTOS/Source/list.c.obj
LOAD CMakeFiles/rpmsg_pingpong_freertos_example.dir/home/abhishek/udoo/udoo-neo_custom_linux/m4/FreeRTOS_BSP_1.0.1_iMX6SX/rtos/FreeRTOS/Source/queue.c.obj
LOAD CMakeFiles/rpmsg_pingpong_freertos_example.dir/home/abhishek/udoo/udoo-neo_custom_linux/m4/FreeRTOS_BSP_1.0.1_iMX6SX/rtos/FreeRTOS/Source/tasks.c.obj
LOAD CMakeFiles/rpmsg_pingpong_freertos_example.dir/home/abhishek/udoo/udoo-neo_custom_linux/m4/FreeRTOS_BSP_1.0.1_iMX6SX/rtos/FreeRTOS/Source/timers.c.obj
LOAD CMakeFiles/rpmsg_pingpong_freertos_example.dir/home/abhishek/udoo/udoo-neo_custom_linux/m4/FreeRTOS_BSP_1.0.1_iMX6SX/platform/drivers/src/ccm_analog_imx6sx.c.obj
LOAD CMakeFiles/rpmsg_pingpong_freertos_example.dir/home/abhishek/udoo/udoo-neo_custom_linux/m4/FreeRTOS_BSP_1.0.1_iMX6SX/platform/drivers/src/ccm_imx6sx.c.obj
LOAD CMakeFiles/rpmsg_pingpong_freertos_example.dir/home/abhishek/udoo/udoo-neo_custom_linux/m4/FreeRTOS_BSP_1.0.1_iMX6SX/platform/drivers/src/lmem.c.obj
LOAD CMakeFiles/rpmsg_pingpong_freertos_example.dir/home/abhishek/udoo/udoo-neo_custom_linux/m4/FreeRTOS_BSP_1.0.1_iMX6SX/platform/drivers/src/rdc.c.obj
LOAD CMakeFiles/rpmsg_pingpong_freertos_example.dir/home/abhishek/udoo/udoo-neo_custom_linux/m4/FreeRTOS_BSP_1.0.1_iMX6SX/platform/drivers/src/wdog_imx.c.obj
LOAD CMakeFiles/rpmsg_pingpong_freertos_example.dir/home/abhishek/udoo/udoo-neo_custom_linux/m4/FreeRTOS_BSP_1.0.1_iMX6SX/platform/utilities/src/debug_console_imx.c.obj
LOAD CMakeFiles/rpmsg_pingpong_freertos_example.dir/home/abhishek/udoo/udoo-neo_custom_linux/m4/FreeRTOS_BSP_1.0.1_iMX6SX/platform/utilities/src/print_scan.c.obj
LOAD CMakeFiles/rpmsg_pingpong_freertos_example.dir/home/abhishek/udoo/udoo-neo_custom_linux/m4/FreeRTOS_BSP_1.0.1_iMX6SX/platform/devices/MCIMX6X/startup/system_MCIMX6X_M4.c.obj
LOAD CMakeFiles/rpmsg_pingpong_freertos_example.dir/home/abhishek/udoo/udoo-neo_custom_linux/m4/FreeRTOS_BSP_1.0.1_iMX6SX/examples/imx6sx_sdb_m4/pin_mux.c.obj
LOAD CMakeFiles/rpmsg_pingpong_freertos_example.dir/home/abhishek/udoo/udoo-neo_custom_linux/m4/FreeRTOS_BSP_1.0.1_iMX6SX/examples/imx6sx_sdb_m4/board.c.obj
LOAD CMakeFiles/rpmsg_pingpong_freertos_example.dir/home/abhishek/udoo/udoo-neo_custom_linux/m4/FreeRTOS_BSP_1.0.1_iMX6SX/examples/imx6sx_sdb_m4/clock_freq.c.obj
LOAD CMakeFiles/rpmsg_pingpong_freertos_example.dir/home/abhishek/udoo/udoo-neo_custom_linux/m4/FreeRTOS_BSP_1.0.1_iMX6SX/examples/imx6sx_sdb_m4/demo_apps/rpmsg/pingpong_freertos/hardware_init.c.obj
LOAD CMakeFiles/rpmsg_pingpong_freertos_example.dir/home/abhishek/udoo/udoo-neo_custom_linux/m4/FreeRTOS_BSP_1.0.1_iMX6SX/platform/drivers/src/uart_imx.c.obj
LOAD CMakeFiles/rpmsg_pingpong_freertos_example.dir/home/abhishek/udoo/udoo-neo_custom_linux/m4/FreeRTOS_BSP_1.0.1_iMX6SX/platform/drivers/src/mu_imx.c.obj
START GROUP
LOAD /home/abhishek/udoo/udoo-neo_custom_linux/m4/gcc-arm-none-eabi-7-2018-q2-update-linux/gcc-arm-none-eabi-7-2018-q2-update/bin/../lib/gcc/arm-none-eabi/7.3.1/../../../../arm-none-eabi/lib/thumb/v7e-m/fpv4-sp/hard/libm.a
LOAD /home/abhishek/udoo/udoo-neo_custom_linux/m4/gcc-arm-none-eabi-7-2018-q2-update-linux/gcc-arm-none-eabi-7-2018-q2-update/bin/../lib/gcc/arm-none-eabi/7.3.1/../../../../arm-none-eabi/lib/thumb/v7e-m/fpv4-sp/hard/libc_nano.a
LOAD /home/abhishek/udoo/udoo-neo_custom_linux/m4/gcc-arm-none-eabi-7-2018-q2-update-linux/gcc-arm-none-eabi-7-2018-q2-update/bin/../lib/gcc/arm-none-eabi/7.3.1/thumb/v7e-m/fpv4-sp/hard/libgcc.a
LOAD /home/abhishek/udoo/udoo-neo_custom_linux/m4/gcc-arm-none-eabi-7-2018-q2-update-linux/gcc-arm-none-eabi-7-2018-q2-update/bin/../lib/gcc/arm-none-eabi/7.3.1/../../../../arm-none-eabi/lib/thumb/v7e-m/fpv4-sp/hard/libnosys.a
END GROUP
START GROUP
LOAD /home/abhishek/udoo/udoo-neo_custom_linux/m4/gcc-arm-none-eabi-7-2018-q2-update-linux/gcc-arm-none-eabi-7-2018-q2-update/bin/../lib/gcc/arm-none-eabi/7.3.1/thumb/v7e-m/fpv4-sp/hard/libgcc.a
LOAD /home/abhishek/udoo/udoo-neo_custom_linux/m4/gcc-arm-none-eabi-7-2018-q2-update-linux/gcc-arm-none-eabi-7-2018-q2-update/bin/../lib/gcc/arm-none-eabi/7.3.1/../../../../arm-none-eabi/lib/thumb/v7e-m/fpv4-sp/hard/libc_nano.a
END GROUP
START GROUP
LOAD /home/abhishek/udoo/udoo-neo_custom_linux/m4/gcc-arm-none-eabi-7-2018-q2-update-linux/gcc-arm-none-eabi-7-2018-q2-update/bin/../lib/gcc/arm-none-eabi/7.3.1/thumb/v7e-m/fpv4-sp/hard/libgcc.a
LOAD /home/abhishek/udoo/udoo-neo_custom_linux/m4/gcc-arm-none-eabi-7-2018-q2-update-linux/gcc-arm-none-eabi-7-2018-q2-update/bin/../lib/gcc/arm-none-eabi/7.3.1/../../../../arm-none-eabi/lib/thumb/v7e-m/fpv4-sp/hard/libc_nano.a
END GROUP
LOAD /home/abhishek/udoo/udoo-neo_custom_linux/m4/gcc-arm-none-eabi-7-2018-q2-update-linux/gcc-arm-none-eabi-7-2018-q2-update/bin/../lib/gcc/arm-none-eabi/7.3.1/thumb/v7e-m/fpv4-sp/hard/crtend.o
LOAD /home/abhishek/udoo/udoo-neo_custom_linux/m4/gcc-arm-none-eabi-7-2018-q2-update-linux/gcc-arm-none-eabi-7-2018-q2-update/bin/../lib/gcc/arm-none-eabi/7.3.1/thumb/v7e-m/fpv4-sp/hard/crtn.o
                0x0000000000000400                HEAP_SIZE = DEFINED (__heap_size__)?__heap_size__:0x400
                0x0000000000000400                STACK_SIZE = DEFINED (__stack_size__)?__stack_size__:0x400

.interrupts     0x000000001fff8000      0x240
                0x000000001fff8000                __VECTOR_TABLE = .
                0x000000001fff8000                . = ALIGN (0x4)
 *(.isr_vector)
 .isr_vector    0x000000001fff8000      0x240 CMakeFiles/rpmsg_pingpong_freertos_example.dir/home/abhishek/udoo/udoo-neo_custom_linux/m4/FreeRTOS_BSP_1.0.1_iMX6SX/platform/devices/MCIMX6X/startup/gcc/startup_MCIMX6X_M4.S.obj
                0x000000001fff8000                __isr_vector
                0x000000001fff8240                . = ALIGN (0x4)

.text           0x000000001fff8240     0x4a30
                0x000000001fff8240                . = ALIGN (0x4)
 *(.text)
 .text          0x000000001fff8240       0x40 /home/abhishek/udoo/udoo-neo_custom_linux/m4/gcc-arm-none-eabi-7-2018-q2-update-linux/gcc-arm-none-eabi-7-2018-q2-update/bin/../lib/gcc/arm-none-eabi/7.3.1/thumb/v7e-m/fpv4-sp/hard/crtbegin.o
 .text          0x000000001fff8280       0x74 /home/abhishek/udoo/udoo-neo_custom_linux/m4/gcc-arm-none-eabi-7-2018-q2-update-linux/gcc-arm-none-eabi-7-2018-q2-update/bin/../lib/gcc/arm-none-eabi/7.3.1/../../../../arm-none-eabi/lib/thumb/v7e-m/fpv4-sp/hard/crt0.o
                0x000000001fff8280                _mainCRTStartup
                0x000000001fff8280                _start
 .text          0x000000001fff82f4       0x30 CMakeFiles/rpmsg_pingpong_freertos_example.dir/home/abhishek/udoo/udoo-neo_custom_linux/m4/FreeRTOS_BSP_1.0.1_iMX6SX/platform/devices/MCIMX6X/startup/gcc/startup_MCIMX6X_M4.S.obj
                0x000000001fff82f4                Reset_Handler
                0x000000001fff8320                GPIO6_Combined_0_15_Handler
                0x000000001fff8320                DebugMon_Handler
                0x000000001fff8320                eCSPI4_Handler
                0x000000001fff8320                FLEXCAN1_Handler
                0x000000001fff8320                UART3_Handler
                0x000000001fff8320                SNVS_Consolidated_Handler
                0x000000001fff8320                UART2_Handler
                0x000000001fff8320                GPIO1_INT3_Handler
                0x000000001fff8320                HardFault_Handler
                0x000000001fff8320                QSPI1_Handler
                0x000000001fff8320                SRC_Handler
                0x000000001fff8320                CCM2_Handler
                0x000000001fff8320                I2C1_Handler
                0x000000001fff8320                NMI_Handler
                0x000000001fff8320                SAI1_Handler
                0x000000001fff8320                KPP_Handler
                0x000000001fff8320                USB_OTG1_Handler
                0x000000001fff8320                CPU_Perfomance_Handler
                0x000000001fff8320                ENET1_Timer_Handler
                0x000000001fff8320                MLB_Channels_31_0_Handler
                0x000000001fff8320                LCDIF2_Handler
                0x000000001fff8320                PWM2_PWM6_Handler
                0x000000001fff8320                EPIT2_Handler
                0x000000001fff8320                SSI1_Handler
                0x000000001fff8320                Reserved129_Handler
                0x000000001fff8320                uSDHC2_Handler
                0x000000001fff8320                GPIO1_INT6_Handler
                0x000000001fff8320                CORTEX_M4_Handler
                0x000000001fff8320                DCIC1_Handler
                0x000000001fff8320                GPIO2_Combined_0_15_Handler
                0x000000001fff8320                RDC_Handler
                0x000000001fff8320                PXP_Handler
                0x000000001fff8320                GPIO3_Combined_16_31_Handler
                0x000000001fff8320                CCM1_Handler
                0x000000001fff8320                Reserved19_Handler
                0x000000001fff8320                UsageFault_Handler
                0x000000001fff8320                ADC1_Handler
                0x000000001fff8320                CPU_CTI_Trigger_Handler
                0x000000001fff8320                GPIO1_INT0_Handler
                0x000000001fff8320                PCIe4_Handler
                0x000000001fff8320                DefaultISR
                0x000000001fff8320                WDOG3_Handler
                0x000000001fff8320                SAI2_Handler
                0x000000001fff8320                PWM3_PWM7_Handler
                0x000000001fff8320                ENET2_Timer_Handler
                0x000000001fff8320                eCSPI1_Handler
                0x000000001fff8320                CSI1_Handler
                0x000000001fff8320                SJC_Handler
                0x000000001fff8320                GPC_Handler
                0x000000001fff8320                MLB_Error_Handler
                0x000000001fff8320                PWM1_PWM5_Handler
                0x000000001fff8320                Reserved128_Handler
                0x000000001fff8320                SRC_WDOG_Handler
                0x000000001fff8320                UART1_Handler
                0x000000001fff8320                SSI2_Handler
                0x000000001fff8320                eCSPI3_Handler
                0x000000001fff8320                BCH_Handler
                0x000000001fff8320                PMU_BrownOutCore_Handler
                0x000000001fff8320                CAAM0_Handler
                0x000000001fff8320                ASRC_Handler
                0x000000001fff8320                CPU_L2_Handler
                0x000000001fff8320                USB_HISC_Handler
                0x000000001fff8320                LCDIF1_Handler
                0x000000001fff8320                GPIO4_Combined_16_31_Handler
                0x000000001fff8320                GPMI_Handler
                0x000000001fff8320                GPIO5_Combined_0_15_Handler
                0x000000001fff8320                SSI3_Handler
                0x000000001fff8320                I2C4_Handler
                0x000000001fff8320                CANFD1_Handler
                0x000000001fff8320                Reserved25_Handler
                0x000000001fff8320                TZASC_Handler
                0x000000001fff8320                UART4_Handler
                0x000000001fff8320                GPIO1_INT1_Handler
                0x000000001fff8320                uSDHC3_Handler
                0x000000001fff8320                EIM_Handler
                0x000000001fff8320                UART6_Handler
                0x000000001fff8320                PCIe2_Handler
                0x000000001fff8320                GPIO1_INT4_Handler
                0x000000001fff8320                MLB_Channels_63_32_Handler
                0x000000001fff8320                GPIO7_Combined_16_31_Handler
                0x000000001fff8320                GPIO6_Combined_16_31_Handler
                0x000000001fff8320                GPIO2_Combined_16_31_Handler
                0x000000001fff8320                DCIC2_Handler
                0x000000001fff8320                PWM4_PWM8_Handler
                0x000000001fff8320                uSDHC1_Handler
                0x000000001fff8320                QSPI2_Handler
                0x000000001fff8320                CPU_Parity_Handler
                0x000000001fff8320                SDMA_Handler
                0x000000001fff8320                ENET2_Handler
                0x000000001fff8320                MemManage_Handler
                0x000000001fff8320                I2C2_Handler
                0x000000001fff8320                GPIO5_Combined_16_31_Handler
                0x000000001fff8320                MU_A9_Handler
                0x000000001fff8320                DAP_Handler
                0x000000001fff8320                CSI2_Handler
                0x000000001fff8320                eCSPI2_Handler
                0x000000001fff8320                WDOG2_Handler
                0x000000001fff8320                FLEXCAN2_Handler
                0x000000001fff8320                SEMA4_CP0_Handler
                0x000000001fff8320                USB_PHY_UTMI1_Handler
                0x000000001fff8320                GPT_Handler
                0x000000001fff8320                GPIO7_Combined_0_15_Handler
                0x000000001fff8320                APBH_DMA_Handler
                0x000000001fff8320                SEMA4_CP1_Handler
                0x000000001fff8320                PCIe3_Handler
                0x000000001fff8320                GPIO1_INT5_Handler
                0x000000001fff8320                SNVS_Security_Handler
                0x000000001fff8320                GPIO1_Combined_0_15_Handler
                0x000000001fff8320                GPIO1_INT2_Handler
                0x000000001fff8320                UART5_Handler
                0x000000001fff8320                PCIe1_Handler
                0x000000001fff8320                GPIO1_INT7_Handler
                0x000000001fff8320                I2C3_Handler
                0x000000001fff8320                eCSPI5_Handler
                0x000000001fff8320                uSDHC4_Handler
                0x000000001fff8320                CSU_Handler
                0x000000001fff8320                GPU_Handler
                0x000000001fff8320                GPIO4_Combined_0_15_Handler
                0x000000001fff8320                EPIT1_Handler
                0x000000001fff8320                CAAM1_Handler
                0x000000001fff8320                GPIO1_Combined_16_31_Handler
                0x000000001fff8320                CANFD2_Handler
                0x000000001fff8320                USB_OTG2_Handler
                0x000000001fff8320                SPDIF_Handler
                0x000000001fff8320                GPIO3_Combined_0_15_Handler
                0x000000001fff8320                BusFault_Handler
                0x000000001fff8320                SNVS_PMIC_Handler
                0x000000001fff8320                USB_PHY_UTMI0_Handler
                0x000000001fff8320                ESAI_Handler
                0x000000001fff8320                PMU_BrownOut_Handler
                0x000000001fff8320                TEMPMON_Handler
                0x000000001fff8320                WDOG1_Handler
                0x000000001fff8320                ADC2_Handler
                0x000000001fff8320                ENET1_Handler
 .text          0x000000001fff8324       0x10 /home/abhishek/udoo/udoo-neo_custom_linux/m4/gcc-arm-none-eabi-7-2018-q2-update-linux/gcc-arm-none-eabi-7-2018-q2-update/bin/../lib/gcc/arm-none-eabi/7.3.1/../../../../arm-none-eabi/lib/thumb/v7e-m/fpv4-sp/hard/libc_nano.a(lib_a-strlen.o)
                0x000000001fff8324                strlen
 *fill*         0x000000001fff8334        0xc 
 .text          0x000000001fff8340       0xa0 /home/abhishek/udoo/udoo-neo_custom_linux/m4/gcc-arm-none-eabi-7-2018-q2-update-linux/gcc-arm-none-eabi-7-2018-q2-update/bin/../lib/gcc/arm-none-eabi/7.3.1/../../../../arm-none-eabi/lib/thumb/v7e-m/fpv4-sp/hard/libc_nano.a(lib_a-memchr.o)
                0x000000001fff8340                memchr
 *(.text*)
 .text.prvPortStartFirstTask
                0x000000001fff83e0       0x1c CMakeFiles/rpmsg_pingpong_freertos_example.dir/home/abhishek/udoo/udoo-neo_custom_linux/m4/FreeRTOS_BSP_1.0.1_iMX6SX/rtos/FreeRTOS/Source/portable/GCC/ARM_CM4F/port.c.obj
 .text.vPortEnableVFP
                0x000000001fff83fc       0x14 CMakeFiles/rpmsg_pingpong_freertos_example.dir/home/abhishek/udoo/udoo-neo_custom_linux/m4/FreeRTOS_BSP_1.0.1_iMX6SX/rtos/FreeRTOS/Source/portable/GCC/ARM_CM4F/port.c.obj
 .text.pxPortInitialiseStack
                0x000000001fff8410       0x24 CMakeFiles/rpmsg_pingpong_freertos_example.dir/home/abhishek/udoo/udoo-neo_custom_linux/m4/FreeRTOS_BSP_1.0.1_iMX6SX/rtos/FreeRTOS/Source/portable/GCC/ARM_CM4F/port.c.obj
                0x000000001fff8410                pxPortInitialiseStack
 .text.SVC_Handler
                0x000000001fff8434       0x20 CMakeFiles/rpmsg_pingpong_freertos_example.dir/home/abhishek/udoo/udoo-neo_custom_linux/m4/FreeRTOS_BSP_1.0.1_iMX6SX/rtos/FreeRTOS/Source/portable/GCC/ARM_CM4F/port.c.obj
                0x000000001fff8434                SVC_Handler
 .text.vPortYield
                0x000000001fff8454       0x18 CMakeFiles/rpmsg_pingpong_freertos_example.dir/home/abhishek/udoo/udoo-neo_custom_linux/m4/FreeRTOS_BSP_1.0.1_iMX6SX/rtos/FreeRTOS/Source/portable/GCC/ARM_CM4F/port.c.obj
                0x000000001fff8454                vPortYield
 .text.ulPortSetInterruptMask
                0x000000001fff846c       0x10 CMakeFiles/rpmsg_pingpong_freertos_example.dir/home/abhishek/udoo/udoo-neo_custom_linux/m4/FreeRTOS_BSP_1.0.1_iMX6SX/rtos/FreeRTOS/Source/portable/GCC/ARM_CM4F/port.c.obj
                0x000000001fff846c                ulPortSetInterruptMask
 .text.prvTaskExitError
                0x000000001fff847c       0x1c CMakeFiles/rpmsg_pingpong_freertos_example.dir/home/abhishek/udoo/udoo-neo_custom_linux/m4/FreeRTOS_BSP_1.0.1_iMX6SX/rtos/FreeRTOS/Source/portable/GCC/ARM_CM4F/port.c.obj
 .text.vPortEnterCritical
                0x000000001fff8498       0x1c CMakeFiles/rpmsg_pingpong_freertos_example.dir/home/abhishek/udoo/udoo-neo_custom_linux/m4/FreeRTOS_BSP_1.0.1_iMX6SX/rtos/FreeRTOS/Source/portable/GCC/ARM_CM4F/port.c.obj
                0x000000001fff8498                vPortEnterCritical
 .text.vPortClearInterruptMask
                0x000000001fff84b4        0x6 CMakeFiles/rpmsg_pingpong_freertos_example.dir/home/abhishek/udoo/udoo-neo_custom_linux/m4/FreeRTOS_BSP_1.0.1_iMX6SX/rtos/FreeRTOS/Source/portable/GCC/ARM_CM4F/port.c.obj
                0x000000001fff84b4                vPortClearInterruptMask
 *fill*         0x000000001fff84ba        0x2 
 .text.vPortExitCritical
                0x000000001fff84bc       0x24 CMakeFiles/rpmsg_pingpong_freertos_example.dir/home/abhishek/udoo/udoo-neo_custom_linux/m4/FreeRTOS_BSP_1.0.1_iMX6SX/rtos/FreeRTOS/Source/portable/GCC/ARM_CM4F/port.c.obj
                0x000000001fff84bc                vPortExitCritical
 .text.PendSV_Handler
                0x000000001fff84e0       0x58 CMakeFiles/rpmsg_pingpong_freertos_example.dir/home/abhishek/udoo/udoo-neo_custom_linux/m4/FreeRTOS_BSP_1.0.1_iMX6SX/rtos/FreeRTOS/Source/portable/GCC/ARM_CM4F/port.c.obj
                0x000000001fff84e0                PendSV_Handler
 .text.SysTick_Handler
                0x000000001fff8538       0x24 CMakeFiles/rpmsg_pingpong_freertos_example.dir/home/abhishek/udoo/udoo-neo_custom_linux/m4/FreeRTOS_BSP_1.0.1_iMX6SX/rtos/FreeRTOS/Source/portable/GCC/ARM_CM4F/port.c.obj
                0x000000001fff8538                SysTick_Handler
 .text.vPortSetupTimerInterrupt
                0x000000001fff855c       0x18 CMakeFiles/rpmsg_pingpong_freertos_example.dir/home/abhishek/udoo/udoo-neo_custom_linux/m4/FreeRTOS_BSP_1.0.1_iMX6SX/rtos/FreeRTOS/Source/portable/GCC/ARM_CM4F/port.c.obj
                0x000000001fff855c                vPortSetupTimerInterrupt
 .text.xPortStartScheduler
                0x000000001fff8574       0xa8 CMakeFiles/rpmsg_pingpong_freertos_example.dir/home/abhishek/udoo/udoo-neo_custom_linux/m4/FreeRTOS_BSP_1.0.1_iMX6SX/rtos/FreeRTOS/Source/portable/GCC/ARM_CM4F/port.c.obj
                0x000000001fff8574                xPortStartScheduler
 .text.vPortValidateInterruptPriority
                0x000000001fff861c       0x44 CMakeFiles/rpmsg_pingpong_freertos_example.dir/home/abhishek/udoo/udoo-neo_custom_linux/m4/FreeRTOS_BSP_1.0.1_iMX6SX/rtos/FreeRTOS/Source/portable/GCC/ARM_CM4F/port.c.obj
                0x000000001fff861c                vPortValidateInterruptPriority
 .text.pvPortMalloc
                0x000000001fff8660       0xb4 CMakeFiles/rpmsg_pingpong_freertos_example.dir/home/abhishek/udoo/udoo-neo_custom_linux/m4/FreeRTOS_BSP_1.0.1_iMX6SX/rtos/FreeRTOS/Source/portable/MemMang/heap_2.c.obj
                0x000000001fff8660                pvPortMalloc
 .text.vPortFree
                0x000000001fff8714       0x44 CMakeFiles/rpmsg_pingpong_freertos_example.dir/home/abhishek/udoo/udoo-neo_custom_linux/m4/FreeRTOS_BSP_1.0.1_iMX6SX/rtos/FreeRTOS/Source/portable/MemMang/heap_2.c.obj
                0x000000001fff8714                vPortFree
 .text.PingPongTask
                0x000000001fff8758       0xa8 CMakeFiles/rpmsg_pingpong_freertos_example.dir/home/abhishek/udoo/udoo-neo_custom_linux/m4/FreeRTOS_BSP_1.0.1_iMX6SX/examples/imx6sx_sdb_m4/demo_apps/rpmsg/pingpong_freertos/pingpong_freertos.c.obj
 .text.MU_M4_Handler
                0x000000001fff8800        0x4 CMakeFiles/rpmsg_pingpong_freertos_example.dir/home/abhishek/udoo/udoo-neo_custom_linux/m4/FreeRTOS_BSP_1.0.1_iMX6SX/examples/imx6sx_sdb_m4/demo_apps/rpmsg/pingpong_freertos/pingpong_freertos.c.obj
                0x000000001fff8800                MU_M4_Handler
 .text.startup.main
                0x000000001fff8804       0x50 CMakeFiles/rpmsg_pingpong_freertos_example.dir/home/abhishek/udoo/udoo-neo_custom_linux/m4/FreeRTOS_BSP_1.0.1_iMX6SX/examples/imx6sx_sdb_m4/demo_apps/rpmsg/pingpong_freertos/pingpong_freertos.c.obj
                0x000000001fff8804                main
 .text.rpmsg_channel_deleted_rtos
                0x000000001fff8854       0x28 CMakeFiles/rpmsg_pingpong_freertos_example.dir/home/abhishek/udoo/udoo-neo_custom_linux/m4/FreeRTOS_BSP_1.0.1_iMX6SX/middleware/multicore/open-amp/rpmsg/rpmsg_rtos.c.obj
 .text.rpmsg_read_rtos_cb
                0x000000001fff887c       0x54 CMakeFiles/rpmsg_pingpong_freertos_example.dir/home/abhishek/udoo/udoo-neo_custom_linux/m4/FreeRTOS_BSP_1.0.1_iMX6SX/middleware/multicore/open-amp/rpmsg/rpmsg_rtos.c.obj
 .text.rpmsg_channel_created_rtos
                0x000000001fff88d0       0x50 CMakeFiles/rpmsg_pingpong_freertos_example.dir/home/abhishek/udoo/udoo-neo_custom_linux/m4/FreeRTOS_BSP_1.0.1_iMX6SX/middleware/multicore/open-amp/rpmsg/rpmsg_rtos.c.obj
 .text.rpmsg_rtos_init
                0x000000001fff8920       0xc4 CMakeFiles/rpmsg_pingpong_freertos_example.dir/home/abhishek/udoo/udoo-neo_custom_linux/m4/FreeRTOS_BSP_1.0.1_iMX6SX/middleware/multicore/open-amp/rpmsg/rpmsg_rtos.c.obj
                0x000000001fff8920                rpmsg_rtos_init
 .text.rpmsg_rtos_recv
                0x000000001fff89e4       0x74 CMakeFiles/rpmsg_pingpong_freertos_example.dir/home/abhishek/udoo/udoo-neo_custom_linux/m4/FreeRTOS_BSP_1.0.1_iMX6SX/middleware/multicore/open-amp/rpmsg/rpmsg_rtos.c.obj
                0x000000001fff89e4                rpmsg_rtos_recv
 .text.rpmsg_rtos_send
                0x000000001fff8a58       0x30 CMakeFiles/rpmsg_pingpong_freertos_example.dir/home/abhishek/udoo/udoo-neo_custom_linux/m4/FreeRTOS_BSP_1.0.1_iMX6SX/middleware/multicore/open-amp/rpmsg/rpmsg_rtos.c.obj
                0x000000001fff8a58                rpmsg_rtos_send
 .text._shutdown_cpu
                0x000000001fff8a88       0x1c CMakeFiles/rpmsg_pingpong_freertos_example.dir/home/abhishek/udoo/udoo-neo_custom_linux/m4/FreeRTOS_BSP_1.0.1_iMX6SX/middleware/multicore/open-amp/porting/imx6sx_m4/platform.c.obj
 .text._boot_cpu
                0x000000001fff8aa4       0x1c CMakeFiles/rpmsg_pingpong_freertos_example.dir/home/abhishek/udoo/udoo-neo_custom_linux/m4/FreeRTOS_BSP_1.0.1_iMX6SX/middleware/multicore/open-amp/porting/imx6sx_m4/platform.c.obj
 .text._notify  0x000000001fff8ac0       0x10 CMakeFiles/rpmsg_pingpong_freertos_example.dir/home/abhishek/udoo/udoo-neo_custom_linux/m4/FreeRTOS_BSP_1.0.1_iMX6SX/middleware/multicore/open-amp/porting/imx6sx_m4/platform.c.obj
 .text._enable_interrupt
                0x000000001fff8ad0       0x28 CMakeFiles/rpmsg_pingpong_freertos_example.dir/home/abhishek/udoo/udoo-neo_custom_linux/m4/FreeRTOS_BSP_1.0.1_iMX6SX/middleware/multicore/open-amp/porting/imx6sx_m4/platform.c.obj
 .text.platform_isr
                0x000000001fff8af8        0x6 CMakeFiles/rpmsg_pingpong_freertos_example.dir/home/abhishek/udoo/udoo-neo_custom_linux/m4/FreeRTOS_BSP_1.0.1_iMX6SX/middleware/multicore/open-amp/porting/imx6sx_m4/platform.c.obj
                0x000000001fff8af8                platform_isr
 *fill*         0x000000001fff8afe        0x2 
 .text.rpmsg_handler
                0x000000001fff8b00       0x20 CMakeFiles/rpmsg_pingpong_freertos_example.dir/home/abhishek/udoo/udoo-neo_custom_linux/m4/FreeRTOS_BSP_1.0.1_iMX6SX/middleware/multicore/open-amp/porting/imx6sx_m4/platform.c.obj
                0x000000001fff8b00                rpmsg_handler
 .text.platform_in_isr
                0x000000001fff8b20       0x14 CMakeFiles/rpmsg_pingpong_freertos_example.dir/home/abhishek/udoo/udoo-neo_custom_linux/m4/FreeRTOS_BSP_1.0.1_iMX6SX/middleware/multicore/open-amp/porting/imx6sx_m4/platform.c.obj
                0x000000001fff8b20                platform_in_isr
 .text.platform_interrupt_enable
                0x000000001fff8b34       0x54 CMakeFiles/rpmsg_pingpong_freertos_example.dir/home/abhishek/udoo/udoo-neo_custom_linux/m4/FreeRTOS_BSP_1.0.1_iMX6SX/middleware/multicore/open-amp/porting/imx6sx_m4/platform.c.obj
                0x000000001fff8b34                platform_interrupt_enable
 .text.platform_interrupt_disable
                0x000000001fff8b88       0x58 CMakeFiles/rpmsg_pingpong_freertos_example.dir/home/abhishek/udoo/udoo-neo_custom_linux/m4/FreeRTOS_BSP_1.0.1_iMX6SX/middleware/multicore/open-amp/porting/imx6sx_m4/platform.c.obj
                0x000000001fff8b88                platform_interrupt_disable
 .text.platform_interrupt_enable_all
                0x000000001fff8be0       0x3c CMakeFiles/rpmsg_pingpong_freertos_example.dir/home/abhishek/udoo/udoo-neo_custom_linux/m4/FreeRTOS_BSP_1.0.1_iMX6SX/middleware/multicore/open-amp/porting/imx6sx_m4/platform.c.obj
                0x000000001fff8be0                platform_interrupt_enable_all
 .text.platform_interrupt_disable_all
                0x000000001fff8c1c       0x34 CMakeFiles/rpmsg_pingpong_freertos_example.dir/home/abhishek/udoo/udoo-neo_custom_linux/m4/FreeRTOS_BSP_1.0.1_iMX6SX/middleware/multicore/open-amp/porting/imx6sx_m4/platform.c.obj
                0x000000001fff8c1c                platform_interrupt_disable_all
 .text.platform_map_mem_region
                0x000000001fff8c50        0x2 CMakeFiles/rpmsg_pingpong_freertos_example.dir/home/abhishek/udoo/udoo-neo_custom_linux/m4/FreeRTOS_BSP_1.0.1_iMX6SX/middleware/multicore/open-amp/porting/imx6sx_m4/platform.c.obj
                0x000000001fff8c50                platform_map_mem_region
 .text.platform_vatopa
                0x000000001fff8c52        0x2 CMakeFiles/rpmsg_pingpong_freertos_example.dir/home/abhishek/udoo/udoo-neo_custom_linux/m4/FreeRTOS_BSP_1.0.1_iMX6SX/middleware/multicore/open-amp/porting/imx6sx_m4/platform.c.obj
                0x000000001fff8c52                platform_vatopa
 .text.platform_patova
                0x000000001fff8c54        0x2 CMakeFiles/rpmsg_pingpong_freertos_example.dir/home/abhishek/udoo/udoo-neo_custom_linux/m4/FreeRTOS_BSP_1.0.1_iMX6SX/middleware/multicore/open-amp/porting/imx6sx_m4/platform.c.obj
                0x000000001fff8c54                platform_patova
 .text.platform_init
                0x000000001fff8c56        0x4 CMakeFiles/rpmsg_pingpong_freertos_example.dir/home/abhishek/udoo/udoo-neo_custom_linux/m4/FreeRTOS_BSP_1.0.1_iMX6SX/middleware/multicore/open-amp/porting/imx6sx_m4/platform.c.obj
                0x000000001fff8c56                platform_init
 .text.platform_deinit
                0x000000001fff8c5a        0x4 CMakeFiles/rpmsg_pingpong_freertos_example.dir/home/abhishek/udoo/udoo-neo_custom_linux/m4/FreeRTOS_BSP_1.0.1_iMX6SX/middleware/multicore/open-amp/porting/imx6sx_m4/platform.c.obj
                0x000000001fff8c5a                platform_deinit
 *fill*         0x000000001fff8c5e        0x2 
 .text.platform_get_processor_info
                0x000000001fff8c60       0x34 CMakeFiles/rpmsg_pingpong_freertos_example.dir/home/abhishek/udoo/udoo-neo_custom_linux/m4/FreeRTOS_BSP_1.0.1_iMX6SX/middleware/multicore/open-amp/porting/imx6sx_m4/platform_info.c.obj
                0x000000001fff8c60                platform_get_processor_info
 .text.hil_create_proc
                0x000000001fff8c94       0x5c CMakeFiles/rpmsg_pingpong_freertos_example.dir/home/abhishek/udoo/udoo-neo_custom_linux/m4/FreeRTOS_BSP_1.0.1_iMX6SX/middleware/multicore/open-amp/common/hil/hil.c.obj
                0x000000001fff8c94                hil_create_proc
 .text.hil_isr  0x000000001fff8cf0        0x6 CMakeFiles/rpmsg_pingpong_freertos_example.dir/home/abhishek/udoo/udoo-neo_custom_linux/m4/FreeRTOS_BSP_1.0.1_iMX6SX/middleware/multicore/open-amp/common/hil/hil.c.obj
                0x000000001fff8cf0                hil_isr
 .text.hil_get_chnl_info
                0x000000001fff8cf6        0x8 CMakeFiles/rpmsg_pingpong_freertos_example.dir/home/abhishek/udoo/udoo-neo_custom_linux/m4/FreeRTOS_BSP_1.0.1_iMX6SX/middleware/multicore/open-amp/common/hil/hil.c.obj
                0x000000001fff8cf6                hil_get_chnl_info
 .text.hil_get_vring_info
                0x000000001fff8cfe        0x8 CMakeFiles/rpmsg_pingpong_freertos_example.dir/home/abhishek/udoo/udoo-neo_custom_linux/m4/FreeRTOS_BSP_1.0.1_iMX6SX/middleware/multicore/open-amp/common/hil/hil.c.obj
                0x000000001fff8cfe                hil_get_vring_info
 .text.hil_get_shm_info
                0x000000001fff8d06        0x4 CMakeFiles/rpmsg_pingpong_freertos_example.dir/home/abhishek/udoo/udoo-neo_custom_linux/m4/FreeRTOS_BSP_1.0.1_iMX6SX/middleware/multicore/open-amp/common/hil/hil.c.obj
                0x000000001fff8d06                hil_get_shm_info
 .text.hil_enable_vring_notifications
                0x000000001fff8d0a       0x20 CMakeFiles/rpmsg_pingpong_freertos_example.dir/home/abhishek/udoo/udoo-neo_custom_linux/m4/FreeRTOS_BSP_1.0.1_iMX6SX/middleware/multicore/open-amp/common/hil/hil.c.obj
                0x000000001fff8d0a                hil_enable_vring_notifications
 .text.hil_vring_notify
                0x000000001fff8d2a       0x1a CMakeFiles/rpmsg_pingpong_freertos_example.dir/home/abhishek/udoo/udoo-neo_custom_linux/m4/FreeRTOS_BSP_1.0.1_iMX6SX/middleware/multicore/open-amp/common/hil/hil.c.obj
                0x000000001fff8d2a                hil_vring_notify
 .text.hil_get_status
                0x000000001fff8d44        0x4 CMakeFiles/rpmsg_pingpong_freertos_example.dir/home/abhishek/udoo/udoo-neo_custom_linux/m4/FreeRTOS_BSP_1.0.1_iMX6SX/middleware/multicore/open-amp/common/hil/hil.c.obj
                0x000000001fff8d44                hil_get_status
 .text.hil_set_status
                0x000000001fff8d48        0x4 CMakeFiles/rpmsg_pingpong_freertos_example.dir/home/abhishek/udoo/udoo-neo_custom_linux/m4/FreeRTOS_BSP_1.0.1_iMX6SX/middleware/multicore/open-amp/common/hil/hil.c.obj
                0x000000001fff8d48                hil_set_status
 .text.add_to_list
                0x000000001fff8d4c       0x1e CMakeFiles/rpmsg_pingpong_freertos_example.dir/home/abhishek/udoo/udoo-neo_custom_linux/m4/FreeRTOS_BSP_1.0.1_iMX6SX/middleware/multicore/open-amp/common/llist/llist.c.obj
                0x000000001fff8d4c                add_to_list
 .text.remove_from_list
                0x000000001fff8d6a       0x20 CMakeFiles/rpmsg_pingpong_freertos_example.dir/home/abhishek/udoo/udoo-neo_custom_linux/m4/FreeRTOS_BSP_1.0.1_iMX6SX/middleware/multicore/open-amp/common/llist/llist.c.obj
                0x000000001fff8d6a                remove_from_list
 .text.sh_mem_create_pool
                0x000000001fff8d8a       0x7c CMakeFiles/rpmsg_pingpong_freertos_example.dir/home/abhishek/udoo/udoo-neo_custom_linux/m4/FreeRTOS_BSP_1.0.1_iMX6SX/middleware/multicore/open-amp/common/shm/sh_mem.c.obj
                0x000000001fff8d8a                sh_mem_create_pool
 .text.sh_mem_free_buffer
                0x000000001fff8e06       0x52 CMakeFiles/rpmsg_pingpong_freertos_example.dir/home/abhishek/udoo/udoo-neo_custom_linux/m4/FreeRTOS_BSP_1.0.1_iMX6SX/middleware/multicore/open-amp/common/shm/sh_mem.c.obj
                0x000000001fff8e06                sh_mem_free_buffer
 .text.sh_mem_delete_pool
                0x000000001fff8e58       0x18 CMakeFiles/rpmsg_pingpong_freertos_example.dir/home/abhishek/udoo/udoo-neo_custom_linux/m4/FreeRTOS_BSP_1.0.1_iMX6SX/middleware/multicore/open-amp/common/shm/sh_mem.c.obj
                0x000000001fff8e58                sh_mem_delete_pool
 .text.get_first_zero_bit
                0x000000001fff8e70       0x44 CMakeFiles/rpmsg_pingpong_freertos_example.dir/home/abhishek/udoo/udoo-neo_custom_linux/m4/FreeRTOS_BSP_1.0.1_iMX6SX/middleware/multicore/open-amp/common/shm/sh_mem.c.obj
                0x000000001fff8e70                get_first_zero_bit
 .text.sh_mem_get_buffer
                0x000000001fff8eb4       0x70 CMakeFiles/rpmsg_pingpong_freertos_example.dir/home/abhishek/udoo/udoo-neo_custom_linux/m4/FreeRTOS_BSP_1.0.1_iMX6SX/middleware/multicore/open-amp/common/shm/sh_mem.c.obj
                0x000000001fff8eb4                sh_mem_get_buffer
 .text.rpmsg_rdev_get_status
                0x000000001fff8f24        0x4 CMakeFiles/rpmsg_pingpong_freertos_example.dir/home/abhishek/udoo/udoo-neo_custom_linux/m4/FreeRTOS_BSP_1.0.1_iMX6SX/middleware/multicore/open-amp/rpmsg/remote_device.c.obj
                0x000000001fff8f24                rpmsg_rdev_get_status
 .text.rpmsg_rdev_set_status
                0x000000001fff8f28        0x2 CMakeFiles/rpmsg_pingpong_freertos_example.dir/home/abhishek/udoo/udoo-neo_custom_linux/m4/FreeRTOS_BSP_1.0.1_iMX6SX/middleware/multicore/open-amp/rpmsg/remote_device.c.obj
                0x000000001fff8f28                rpmsg_rdev_set_status
 .text.rpmsg_rdev_get_feature
                0x000000001fff8f2a        0x4 CMakeFiles/rpmsg_pingpong_freertos_example.dir/home/abhishek/udoo/udoo-neo_custom_linux/m4/FreeRTOS_BSP_1.0.1_iMX6SX/middleware/multicore/open-amp/rpmsg/remote_device.c.obj
                0x000000001fff8f2a                rpmsg_rdev_get_feature
 .text.rpmsg_rdev_set_feature
                0x000000001fff8f2e        0x8 CMakeFiles/rpmsg_pingpong_freertos_example.dir/home/abhishek/udoo/udoo-neo_custom_linux/m4/FreeRTOS_BSP_1.0.1_iMX6SX/middleware/multicore/open-amp/rpmsg/remote_device.c.obj
                0x000000001fff8f2e                rpmsg_rdev_set_feature
 .text.rpmsg_rdev_negotiate_feature
                0x000000001fff8f36        0x4 CMakeFiles/rpmsg_pingpong_freertos_example.dir/home/abhishek/udoo/udoo-neo_custom_linux/m4/FreeRTOS_BSP_1.0.1_iMX6SX/middleware/multicore/open-amp/rpmsg/remote_device.c.obj
                0x000000001fff8f36                rpmsg_rdev_negotiate_feature
 .text.rpmsg_rdev_read_config
                0x000000001fff8f3a        0x2 CMakeFiles/rpmsg_pingpong_freertos_example.dir/home/abhishek/udoo/udoo-neo_custom_linux/m4/FreeRTOS_BSP_1.0.1_iMX6SX/middleware/multicore/open-amp/rpmsg/remote_device.c.obj
                0x000000001fff8f3a                rpmsg_rdev_read_config
 .text.rpmsg_rdev_reset
                0x000000001fff8f3c        0x2 CMakeFiles/rpmsg_pingpong_freertos_example.dir/home/abhishek/udoo/udoo-neo_custom_linux/m4/FreeRTOS_BSP_1.0.1_iMX6SX/middleware/multicore/open-amp/rpmsg/remote_device.c.obj
                0x000000001fff8f3c                rpmsg_rdev_reset
 *fill*         0x000000001fff8f3e        0x2 
 .text.rpmsg_rdev_create_virtqueues
                0x000000001fff8f40      0x10c CMakeFiles/rpmsg_pingpong_freertos_example.dir/home/abhishek/udoo/udoo-neo_custom_linux/m4/FreeRTOS_BSP_1.0.1_iMX6SX/middleware/multicore/open-amp/rpmsg/remote_device.c.obj
                0x000000001fff8f40                rpmsg_rdev_create_virtqueues
 .text.rpmsg_rdev_write_config
                0x000000001fff904c        0x2 CMakeFiles/rpmsg_pingpong_freertos_example.dir/home/abhishek/udoo/udoo-neo_custom_linux/m4/FreeRTOS_BSP_1.0.1_iMX6SX/middleware/multicore/open-amp/rpmsg/remote_device.c.obj
                0x000000001fff904c                rpmsg_rdev_write_config
 *fill*         0x000000001fff904e        0x2 
 .text.rpmsg_rdev_init
                0x000000001fff9050       0xdc CMakeFiles/rpmsg_pingpong_freertos_example.dir/home/abhishek/udoo/udoo-neo_custom_linux/m4/FreeRTOS_BSP_1.0.1_iMX6SX/middleware/multicore/open-amp/rpmsg/remote_device.c.obj
                0x000000001fff9050                rpmsg_rdev_init
 .text.rpmsg_rdev_get_chnl_node_from_id
                0x000000001fff912c       0x2a CMakeFiles/rpmsg_pingpong_freertos_example.dir/home/abhishek/udoo/udoo-neo_custom_linux/m4/FreeRTOS_BSP_1.0.1_iMX6SX/middleware/multicore/open-amp/rpmsg/remote_device.c.obj
                0x000000001fff912c                rpmsg_rdev_get_chnl_node_from_id
 .text.rpmsg_rdev_get_endpoint_from_addr
                0x000000001fff9156       0x26 CMakeFiles/rpmsg_pingpong_freertos_example.dir/home/abhishek/udoo/udoo-neo_custom_linux/m4/FreeRTOS_BSP_1.0.1_iMX6SX/middleware/multicore/open-amp/rpmsg/remote_device.c.obj
                0x000000001fff9156                rpmsg_rdev_get_endpoint_from_addr
 .text.rpmsg_rdev_deinit
                0x000000001fff917c       0x74 CMakeFiles/rpmsg_pingpong_freertos_example.dir/home/abhishek/udoo/udoo-neo_custom_linux/m4/FreeRTOS_BSP_1.0.1_iMX6SX/middleware/multicore/open-amp/rpmsg/remote_device.c.obj
                0x000000001fff917c                rpmsg_rdev_deinit
 .text.rpmsg_rdev_notify
                0x000000001fff91f0       0x28 CMakeFiles/rpmsg_pingpong_freertos_example.dir/home/abhishek/udoo/udoo-neo_custom_linux/m4/FreeRTOS_BSP_1.0.1_iMX6SX/middleware/multicore/open-amp/rpmsg/remote_device.c.obj
                0x000000001fff91f0                rpmsg_rdev_notify
 .text.rpmsg_deinit
                0x000000001fff9218       0x12 CMakeFiles/rpmsg_pingpong_freertos_example.dir/home/abhishek/udoo/udoo-neo_custom_linux/m4/FreeRTOS_BSP_1.0.1_iMX6SX/middleware/multicore/open-amp/rpmsg/rpmsg.c.obj
                0x000000001fff9218                rpmsg_deinit
 .text.rpmsg_init
                0x000000001fff922a       0x42 CMakeFiles/rpmsg_pingpong_freertos_example.dir/home/abhishek/udoo/udoo-neo_custom_linux/m4/FreeRTOS_BSP_1.0.1_iMX6SX/middleware/multicore/open-amp/rpmsg/rpmsg.c.obj
                0x000000001fff922a                rpmsg_init
 .text.rpmsg_send_offchannel_raw
                0x000000001fff926c      0x12c CMakeFiles/rpmsg_pingpong_freertos_example.dir/home/abhishek/udoo/udoo-neo_custom_linux/m4/FreeRTOS_BSP_1.0.1_iMX6SX/middleware/multicore/open-amp/rpmsg/rpmsg.c.obj
                0x000000001fff926c                rpmsg_send_offchannel_raw
 .text.rpmsg_create_ept
                0x000000001fff9398       0x18 CMakeFiles/rpmsg_pingpong_freertos_example.dir/home/abhishek/udoo/udoo-neo_custom_linux/m4/FreeRTOS_BSP_1.0.1_iMX6SX/middleware/multicore/open-amp/rpmsg/rpmsg.c.obj
                0x000000001fff9398                rpmsg_create_ept
 .text.rpmsg_destroy_ept
                0x000000001fff93b0        0xe CMakeFiles/rpmsg_pingpong_freertos_example.dir/home/abhishek/udoo/udoo-neo_custom_linux/m4/FreeRTOS_BSP_1.0.1_iMX6SX/middleware/multicore/open-amp/rpmsg/rpmsg.c.obj
                0x000000001fff93b0                rpmsg_destroy_ept
 .text.rpmsg_hold_rx_buffer
                0x000000001fff93be       0x12 CMakeFiles/rpmsg_pingpong_freertos_example.dir/home/abhishek/udoo/udoo-neo_custom_linux/m4/FreeRTOS_BSP_1.0.1_iMX6SX/middleware/multicore/open-amp/rpmsg/rpmsg_ext.c.obj
                0x000000001fff93be                rpmsg_hold_rx_buffer
 .text.rpmsg_release_rx_buffer
                0x000000001fff93d0       0x2e CMakeFiles/rpmsg_pingpong_freertos_example.dir/home/abhishek/udoo/udoo-neo_custom_linux/m4/FreeRTOS_BSP_1.0.1_iMX6SX/middleware/multicore/open-amp/rpmsg/rpmsg_ext.c.obj
                0x000000001fff93d0                rpmsg_release_rx_buffer
 .text._rpmsg_create_channel
                0x000000001fff93fe       0x60 CMakeFiles/rpmsg_pingpong_freertos_example.dir/home/abhishek/udoo/udoo-neo_custom_linux/m4/FreeRTOS_BSP_1.0.1_iMX6SX/middleware/multicore/open-amp/rpmsg/rpmsg_core.c.obj
                0x000000001fff93fe                _rpmsg_create_channel
 .text._rpmsg_delete_channel
                0x000000001fff945e       0x3e CMakeFiles/rpmsg_pingpong_freertos_example.dir/home/abhishek/udoo/udoo-neo_custom_linux/m4/FreeRTOS_BSP_1.0.1_iMX6SX/middleware/multicore/open-amp/rpmsg/rpmsg_core.c.obj
                0x000000001fff945e                _rpmsg_delete_channel
 .text.rpmsg_ns_callback
                0x000000001fff949c       0x82 CMakeFiles/rpmsg_pingpong_freertos_example.dir/home/abhishek/udoo/udoo-neo_custom_linux/m4/FreeRTOS_BSP_1.0.1_iMX6SX/middleware/multicore/open-amp/rpmsg/rpmsg_core.c.obj
                0x000000001fff949c                rpmsg_ns_callback
 .text.rpmsg_enqueue_buffer
                0x000000001fff951e       0x2e CMakeFiles/rpmsg_pingpong_freertos_example.dir/home/abhishek/udoo/udoo-neo_custom_linux/m4/FreeRTOS_BSP_1.0.1_iMX6SX/middleware/multicore/open-amp/rpmsg/rpmsg_core.c.obj
                0x000000001fff951e                rpmsg_enqueue_buffer
 .text.rpmsg_return_buffer
                0x000000001fff954c       0x2e CMakeFiles/rpmsg_pingpong_freertos_example.dir/home/abhishek/udoo/udoo-neo_custom_linux/m4/FreeRTOS_BSP_1.0.1_iMX6SX/middleware/multicore/open-amp/rpmsg/rpmsg_core.c.obj
                0x000000001fff954c                rpmsg_return_buffer
 .text.rpmsg_get_tx_buffer
                0x000000001fff957a       0x32 CMakeFiles/rpmsg_pingpong_freertos_example.dir/home/abhishek/udoo/udoo-neo_custom_linux/m4/FreeRTOS_BSP_1.0.1_iMX6SX/middleware/multicore/open-amp/rpmsg/rpmsg_core.c.obj
                0x000000001fff957a                rpmsg_get_tx_buffer
 .text.rpmsg_send_ns_message
                0x000000001fff95ac       0x60 CMakeFiles/rpmsg_pingpong_freertos_example.dir/home/abhishek/udoo/udoo-neo_custom_linux/m4/FreeRTOS_BSP_1.0.1_iMX6SX/middleware/multicore/open-amp/rpmsg/rpmsg_core.c.obj
                0x000000001fff95ac                rpmsg_send_ns_message
 .text.rpmsg_tx_callback
                0x000000001fff960c       0x34 CMakeFiles/rpmsg_pingpong_freertos_example.dir/home/abhishek/udoo/udoo-neo_custom_linux/m4/FreeRTOS_BSP_1.0.1_iMX6SX/middleware/multicore/open-amp/rpmsg/rpmsg_core.c.obj
 .text.rpmsg_get_rx_buffer
                0x000000001fff9640       0x22 CMakeFiles/rpmsg_pingpong_freertos_example.dir/home/abhishek/udoo/udoo-neo_custom_linux/m4/FreeRTOS_BSP_1.0.1_iMX6SX/middleware/multicore/open-amp/rpmsg/rpmsg_core.c.obj
                0x000000001fff9640                rpmsg_get_rx_buffer
 .text.rpmsg_rx_callback
                0x000000001fff9662       0xd6 CMakeFiles/rpmsg_pingpong_freertos_example.dir/home/abhishek/udoo/udoo-neo_custom_linux/m4/FreeRTOS_BSP_1.0.1_iMX6SX/middleware/multicore/open-amp/rpmsg/rpmsg_core.c.obj
 .text.rpmsg_free_buffer
                0x000000001fff9738       0x10 CMakeFiles/rpmsg_pingpong_freertos_example.dir/home/abhishek/udoo/udoo-neo_custom_linux/m4/FreeRTOS_BSP_1.0.1_iMX6SX/middleware/multicore/open-amp/rpmsg/rpmsg_core.c.obj
                0x000000001fff9738                rpmsg_free_buffer
 .text.rpmsg_get_address
                0x000000001fff9748       0x38 CMakeFiles/rpmsg_pingpong_freertos_example.dir/home/abhishek/udoo/udoo-neo_custom_linux/m4/FreeRTOS_BSP_1.0.1_iMX6SX/middleware/multicore/open-amp/rpmsg/rpmsg_core.c.obj
                0x000000001fff9748                rpmsg_get_address
 .text.rpmsg_release_address
                0x000000001fff9780       0x38 CMakeFiles/rpmsg_pingpong_freertos_example.dir/home/abhishek/udoo/udoo-neo_custom_linux/m4/FreeRTOS_BSP_1.0.1_iMX6SX/middleware/multicore/open-amp/rpmsg/rpmsg_core.c.obj
                0x000000001fff9780                rpmsg_release_address
 .text._destroy_endpoint
                0x000000001fff97b8       0x42 CMakeFiles/rpmsg_pingpong_freertos_example.dir/home/abhishek/udoo/udoo-neo_custom_linux/m4/FreeRTOS_BSP_1.0.1_iMX6SX/middleware/multicore/open-amp/rpmsg/rpmsg_core.c.obj
                0x000000001fff97b8                _destroy_endpoint
 .text.rpmsg_is_address_set
                0x000000001fff97fa       0x30 CMakeFiles/rpmsg_pingpong_freertos_example.dir/home/abhishek/udoo/udoo-neo_custom_linux/m4/FreeRTOS_BSP_1.0.1_iMX6SX/middleware/multicore/open-amp/rpmsg/rpmsg_core.c.obj
                0x000000001fff97fa                rpmsg_is_address_set
 .text.rpmsg_set_address
                0x000000001fff982a       0x36 CMakeFiles/rpmsg_pingpong_freertos_example.dir/home/abhishek/udoo/udoo-neo_custom_linux/m4/FreeRTOS_BSP_1.0.1_iMX6SX/middleware/multicore/open-amp/rpmsg/rpmsg_core.c.obj
                0x000000001fff982a                rpmsg_set_address
 .text._create_endpoint
                0x000000001fff9860       0x96 CMakeFiles/rpmsg_pingpong_freertos_example.dir/home/abhishek/udoo/udoo-neo_custom_linux/m4/FreeRTOS_BSP_1.0.1_iMX6SX/middleware/multicore/open-amp/rpmsg/rpmsg_core.c.obj
                0x000000001fff9860                _create_endpoint
 *fill*         0x000000001fff98f6        0x2 
 .text.rpmsg_start_ipc
                0x000000001fff98f8       0xa4 CMakeFiles/rpmsg_pingpong_freertos_example.dir/home/abhishek/udoo/udoo-neo_custom_linux/m4/FreeRTOS_BSP_1.0.1_iMX6SX/middleware/multicore/open-amp/rpmsg/rpmsg_core.c.obj
                0x000000001fff98f8                rpmsg_start_ipc
 .text.vq_ring_update_avail
                0x000000001fff999c       0x2c CMakeFiles/rpmsg_pingpong_freertos_example.dir/home/abhishek/udoo/udoo-neo_custom_linux/m4/FreeRTOS_BSP_1.0.1_iMX6SX/middleware/multicore/open-amp/virtio/virtqueue.c.obj
 .text.virtqueue_add_buffer
                0x000000001fff99c8       0xa0 CMakeFiles/rpmsg_pingpong_freertos_example.dir/home/abhishek/udoo/udoo-neo_custom_linux/m4/FreeRTOS_BSP_1.0.1_iMX6SX/middleware/multicore/open-amp/virtio/virtqueue.c.obj
                0x000000001fff99c8                virtqueue_add_buffer
 .text.virtqueue_get_buffer
                0x000000001fff9a68       0x88 CMakeFiles/rpmsg_pingpong_freertos_example.dir/home/abhishek/udoo/udoo-neo_custom_linux/m4/FreeRTOS_BSP_1.0.1_iMX6SX/middleware/multicore/open-amp/virtio/virtqueue.c.obj
                0x000000001fff9a68                virtqueue_get_buffer
 .text.virtqueue_free
                0x000000001fff9af0       0x12 CMakeFiles/rpmsg_pingpong_freertos_example.dir/home/abhishek/udoo/udoo-neo_custom_linux/m4/FreeRTOS_BSP_1.0.1_iMX6SX/middleware/multicore/open-amp/virtio/virtqueue.c.obj
                0x000000001fff9af0                virtqueue_free
 .text.virtqueue_get_available_buffer
                0x000000001fff9b02       0x4a CMakeFiles/rpmsg_pingpong_freertos_example.dir/home/abhishek/udoo/udoo-neo_custom_linux/m4/FreeRTOS_BSP_1.0.1_iMX6SX/middleware/multicore/open-amp/virtio/virtqueue.c.obj
                0x000000001fff9b02                virtqueue_get_available_buffer
 .text.virtqueue_add_consumed_buffer
                0x000000001fff9b4c       0x34 CMakeFiles/rpmsg_pingpong_freertos_example.dir/home/abhishek/udoo/udoo-neo_custom_linux/m4/FreeRTOS_BSP_1.0.1_iMX6SX/middleware/multicore/open-amp/virtio/virtqueue.c.obj
                0x000000001fff9b4c                virtqueue_add_consumed_buffer
 .text.virtqueue_disable_cb
                0x000000001fff9b80       0x26 CMakeFiles/rpmsg_pingpong_freertos_example.dir/home/abhishek/udoo/udoo-neo_custom_linux/m4/FreeRTOS_BSP_1.0.1_iMX6SX/middleware/multicore/open-amp/virtio/virtqueue.c.obj
                0x000000001fff9b80                virtqueue_disable_cb
 *fill*         0x000000001fff9ba6        0x2 
 .text.virtqueue_create
                0x000000001fff9ba8       0xb8 CMakeFiles/rpmsg_pingpong_freertos_example.dir/home/abhishek/udoo/udoo-neo_custom_linux/m4/FreeRTOS_BSP_1.0.1_iMX6SX/middleware/multicore/open-amp/virtio/virtqueue.c.obj
                0x000000001fff9ba8                virtqueue_create
 .text.virtqueue_kick
                0x000000001fff9c60       0x4c CMakeFiles/rpmsg_pingpong_freertos_example.dir/home/abhishek/udoo/udoo-neo_custom_linux/m4/FreeRTOS_BSP_1.0.1_iMX6SX/middleware/multicore/open-amp/virtio/virtqueue.c.obj
                0x000000001fff9c60                virtqueue_kick
 .text.virtqueue_notification
                0x000000001fff9cac        0x8 CMakeFiles/rpmsg_pingpong_freertos_example.dir/home/abhishek/udoo/udoo-neo_custom_linux/m4/FreeRTOS_BSP_1.0.1_iMX6SX/middleware/multicore/open-amp/virtio/virtqueue.c.obj
                0x000000001fff9cac                virtqueue_notification
 .text.env_init
                0x000000001fff9cb4       0x48 CMakeFiles/rpmsg_pingpong_freertos_example.dir/home/abhishek/udoo/udoo-neo_custom_linux/m4/FreeRTOS_BSP_1.0.1_iMX6SX/middleware/multicore/open-amp/porting/env/freertos/rpmsg_porting.c.obj
                0x000000001fff9cb4                env_init
 .text.env_deinit
                0x000000001fff9cfc       0x44 CMakeFiles/rpmsg_pingpong_freertos_example.dir/home/abhishek/udoo/udoo-neo_custom_linux/m4/FreeRTOS_BSP_1.0.1_iMX6SX/middleware/multicore/open-amp/porting/env/freertos/rpmsg_porting.c.obj
                0x000000001fff9cfc                env_deinit
 .text.env_allocate_memory
                0x000000001fff9d40        0x4 CMakeFiles/rpmsg_pingpong_freertos_example.dir/home/abhishek/udoo/udoo-neo_custom_linux/m4/FreeRTOS_BSP_1.0.1_iMX6SX/middleware/multicore/open-amp/porting/env/freertos/rpmsg_porting.c.obj
                0x000000001fff9d40                env_allocate_memory
 .text.env_free_memory
                0x000000001fff9d44        0x4 CMakeFiles/rpmsg_pingpong_freertos_example.dir/home/abhishek/udoo/udoo-neo_custom_linux/m4/FreeRTOS_BSP_1.0.1_iMX6SX/middleware/multicore/open-amp/porting/env/freertos/rpmsg_porting.c.obj
                0x000000001fff9d44                env_free_memory
 .text.env_memset
                0x000000001fff9d48        0x4 CMakeFiles/rpmsg_pingpong_freertos_example.dir/home/abhishek/udoo/udoo-neo_custom_linux/m4/FreeRTOS_BSP_1.0.1_iMX6SX/middleware/multicore/open-amp/porting/env/freertos/rpmsg_porting.c.obj
                0x000000001fff9d48                env_memset
 .text.env_memcpy
                0x000000001fff9d4c        0x4 CMakeFiles/rpmsg_pingpong_freertos_example.dir/home/abhishek/udoo/udoo-neo_custom_linux/m4/FreeRTOS_BSP_1.0.1_iMX6SX/middleware/multicore/open-amp/porting/env/freertos/rpmsg_porting.c.obj
                0x000000001fff9d4c                env_memcpy
 .text.env_strncpy
                0x000000001fff9d50        0x4 CMakeFiles/rpmsg_pingpong_freertos_example.dir/home/abhishek/udoo/udoo-neo_custom_linux/m4/FreeRTOS_BSP_1.0.1_iMX6SX/middleware/multicore/open-amp/porting/env/freertos/rpmsg_porting.c.obj
                0x000000001fff9d50                env_strncpy
 .text.env_strncmp
                0x000000001fff9d54        0x4 CMakeFiles/rpmsg_pingpong_freertos_example.dir/home/abhishek/udoo/udoo-neo_custom_linux/m4/FreeRTOS_BSP_1.0.1_iMX6SX/middleware/multicore/open-amp/porting/env/freertos/rpmsg_porting.c.obj
                0x000000001fff9d54                env_strncmp
 .text.env_mb   0x000000001fff9d58        0x2 CMakeFiles/rpmsg_pingpong_freertos_example.dir/home/abhishek/udoo/udoo-neo_custom_linux/m4/FreeRTOS_BSP_1.0.1_iMX6SX/middleware/multicore/open-amp/porting/env/freertos/rpmsg_porting.c.obj
                0x000000001fff9d58                env_mb
 .text.env_rmb  0x000000001fff9d5a        0x2 CMakeFiles/rpmsg_pingpong_freertos_example.dir/home/abhishek/udoo/udoo-neo_custom_linux/m4/FreeRTOS_BSP_1.0.1_iMX6SX/middleware/multicore/open-amp/porting/env/freertos/rpmsg_porting.c.obj
                0x000000001fff9d5a                env_rmb
 .text.env_wmb  0x000000001fff9d5c        0x2 CMakeFiles/rpmsg_pingpong_freertos_example.dir/home/abhishek/udoo/udoo-neo_custom_linux/m4/FreeRTOS_BSP_1.0.1_iMX6SX/middleware/multicore/open-amp/porting/env/freertos/rpmsg_porting.c.obj
                0x000000001fff9d5c                env_wmb
 .text.env_map_vatopa
                0x000000001fff9d5e        0x4 CMakeFiles/rpmsg_pingpong_freertos_example.dir/home/abhishek/udoo/udoo-neo_custom_linux/m4/FreeRTOS_BSP_1.0.1_iMX6SX/middleware/multicore/open-amp/porting/env/freertos/rpmsg_porting.c.obj
                0x000000001fff9d5e                env_map_vatopa
 .text.env_map_patova
                0x000000001fff9d62        0x4 CMakeFiles/rpmsg_pingpong_freertos_example.dir/home/abhishek/udoo/udoo-neo_custom_linux/m4/FreeRTOS_BSP_1.0.1_iMX6SX/middleware/multicore/open-amp/porting/env/freertos/rpmsg_porting.c.obj
                0x000000001fff9d62                env_map_patova
 .text.env_create_mutex
                0x000000001fff9d66       0x16 CMakeFiles/rpmsg_pingpong_freertos_example.dir/home/abhishek/udoo/udoo-neo_custom_linux/m4/FreeRTOS_BSP_1.0.1_iMX6SX/middleware/multicore/open-amp/porting/env/freertos/rpmsg_porting.c.obj
                0x000000001fff9d66                env_create_mutex
 .text.env_delete_mutex
                0x000000001fff9d7c        0x4 CMakeFiles/rpmsg_pingpong_freertos_example.dir/home/abhishek/udoo/udoo-neo_custom_linux/m4/FreeRTOS_BSP_1.0.1_iMX6SX/middleware/multicore/open-amp/porting/env/freertos/rpmsg_porting.c.obj
                0x000000001fff9d7c                env_delete_mutex
 .text.env_lock_mutex
                0x000000001fff9d80       0x22 CMakeFiles/rpmsg_pingpong_freertos_example.dir/home/abhishek/udoo/udoo-neo_custom_linux/m4/FreeRTOS_BSP_1.0.1_iMX6SX/middleware/multicore/open-amp/porting/env/freertos/rpmsg_porting.c.obj
                0x000000001fff9d80                env_lock_mutex
 .text.env_unlock_mutex
                0x000000001fff9da2       0x22 CMakeFiles/rpmsg_pingpong_freertos_example.dir/home/abhishek/udoo/udoo-neo_custom_linux/m4/FreeRTOS_BSP_1.0.1_iMX6SX/middleware/multicore/open-amp/porting/env/freertos/rpmsg_porting.c.obj
                0x000000001fff9da2                env_unlock_mutex
 .text.env_create_sync_lock
                0x000000001fff9dc4        0x4 CMakeFiles/rpmsg_pingpong_freertos_example.dir/home/abhishek/udoo/udoo-neo_custom_linux/m4/FreeRTOS_BSP_1.0.1_iMX6SX/middleware/multicore/open-amp/porting/env/freertos/rpmsg_porting.c.obj
                0x000000001fff9dc4                env_create_sync_lock
 .text.env_delete_sync_lock
                0x000000001fff9dc8        0x8 CMakeFiles/rpmsg_pingpong_freertos_example.dir/home/abhishek/udoo/udoo-neo_custom_linux/m4/FreeRTOS_BSP_1.0.1_iMX6SX/middleware/multicore/open-amp/porting/env/freertos/rpmsg_porting.c.obj
                0x000000001fff9dc8                env_delete_sync_lock
 .text.env_acquire_sync_lock
                0x000000001fff9dd0       0x3c CMakeFiles/rpmsg_pingpong_freertos_example.dir/home/abhishek/udoo/udoo-neo_custom_linux/m4/FreeRTOS_BSP_1.0.1_iMX6SX/middleware/multicore/open-amp/porting/env/freertos/rpmsg_porting.c.obj
                0x000000001fff9dd0                env_acquire_sync_lock
 .text.env_release_sync_lock
                0x000000001fff9e0c       0x3c CMakeFiles/rpmsg_pingpong_freertos_example.dir/home/abhishek/udoo/udoo-neo_custom_linux/m4/FreeRTOS_BSP_1.0.1_iMX6SX/middleware/multicore/open-amp/porting/env/freertos/rpmsg_porting.c.obj
                0x000000001fff9e0c                env_release_sync_lock
 .text.env_sleep_msec
                0x000000001fff9e48        0x4 CMakeFiles/rpmsg_pingpong_freertos_example.dir/home/abhishek/udoo/udoo-neo_custom_linux/m4/FreeRTOS_BSP_1.0.1_iMX6SX/middleware/multicore/open-amp/porting/env/freertos/rpmsg_porting.c.obj
                0x000000001fff9e48                env_sleep_msec
 .text.env_register_isr
                0x000000001fff9e4c       0x34 CMakeFiles/rpmsg_pingpong_freertos_example.dir/home/abhishek/udoo/udoo-neo_custom_linux/m4/FreeRTOS_BSP_1.0.1_iMX6SX/middleware/multicore/open-amp/porting/env/freertos/rpmsg_porting.c.obj
                0x000000001fff9e4c                env_register_isr
 .text.env_enable_interrupt
                0x000000001fff9e80       0x40 CMakeFiles/rpmsg_pingpong_freertos_example.dir/home/abhishek/udoo/udoo-neo_custom_linux/m4/FreeRTOS_BSP_1.0.1_iMX6SX/middleware/multicore/open-amp/porting/env/freertos/rpmsg_porting.c.obj
                0x000000001fff9e80                env_enable_interrupt
 .text.env_map_memory
                0x000000001fff9ec0       0x10 CMakeFiles/rpmsg_pingpong_freertos_example.dir/home/abhishek/udoo/udoo-neo_custom_linux/m4/FreeRTOS_BSP_1.0.1_iMX6SX/middleware/multicore/open-amp/porting/env/freertos/rpmsg_porting.c.obj
                0x000000001fff9ec0                env_map_memory
 .text.env_isr  0x000000001fff9ed0       0x5c CMakeFiles/rpmsg_pingpong_freertos_example.dir/home/abhishek/udoo/udoo-neo_custom_linux/m4/FreeRTOS_BSP_1.0.1_iMX6SX/middleware/multicore/open-amp/porting/env/freertos/rpmsg_porting.c.obj
                0x000000001fff9ed0                env_isr
 .text.env_create_queue
                0x000000001fff9f2c       0x1a CMakeFiles/rpmsg_pingpong_freertos_example.dir/home/abhishek/udoo/udoo-neo_custom_linux/m4/FreeRTOS_BSP_1.0.1_iMX6SX/middleware/multicore/open-amp/porting/env/freertos/rpmsg_porting.c.obj
                0x000000001fff9f2c                env_create_queue
 *fill*         0x000000001fff9f46        0x2 
 .text.env_put_queue
                0x000000001fff9f48       0x4c CMakeFiles/rpmsg_pingpong_freertos_example.dir/home/abhishek/udoo/udoo-neo_custom_linux/m4/FreeRTOS_BSP_1.0.1_iMX6SX/middleware/multicore/open-amp/porting/env/freertos/rpmsg_porting.c.obj
                0x000000001fff9f48                env_put_queue
 .text.env_get_queue
                0x000000001fff9f94       0x48 CMakeFiles/rpmsg_pingpong_freertos_example.dir/home/abhishek/udoo/udoo-neo_custom_linux/m4/FreeRTOS_BSP_1.0.1_iMX6SX/middleware/multicore/open-amp/porting/env/freertos/rpmsg_porting.c.obj
                0x000000001fff9f94                env_get_queue
 .text.vListInitialise
                0x000000001fff9fdc       0x16 CMakeFiles/rpmsg_pingpong_freertos_example.dir/home/abhishek/udoo/udoo-neo_custom_linux/m4/FreeRTOS_BSP_1.0.1_iMX6SX/rtos/FreeRTOS/Source/list.c.obj
                0x000000001fff9fdc                vListInitialise
 .text.vListInitialiseItem
                0x000000001fff9ff2        0x6 CMakeFiles/rpmsg_pingpong_freertos_example.dir/home/abhishek/udoo/udoo-neo_custom_linux/m4/FreeRTOS_BSP_1.0.1_iMX6SX/rtos/FreeRTOS/Source/list.c.obj
                0x000000001fff9ff2                vListInitialiseItem
 .text.vListInsertEnd
                0x000000001fff9ff8       0x18 CMakeFiles/rpmsg_pingpong_freertos_example.dir/home/abhishek/udoo/udoo-neo_custom_linux/m4/FreeRTOS_BSP_1.0.1_iMX6SX/rtos/FreeRTOS/Source/list.c.obj
                0x000000001fff9ff8                vListInsertEnd
 .text.vListInsert
                0x000000001fffa010       0x2e CMakeFiles/rpmsg_pingpong_freertos_example.dir/home/abhishek/udoo/udoo-neo_custom_linux/m4/FreeRTOS_BSP_1.0.1_iMX6SX/rtos/FreeRTOS/Source/list.c.obj
                0x000000001fffa010                vListInsert
 .text.uxListRemove
                0x000000001fffa03e       0x24 CMakeFiles/rpmsg_pingpong_freertos_example.dir/home/abhishek/udoo/udoo-neo_custom_linux/m4/FreeRTOS_BSP_1.0.1_iMX6SX/rtos/FreeRTOS/Source/list.c.obj
                0x000000001fffa03e                uxListRemove
 .text.prvCopyDataToQueue
                0x000000001fffa062       0x5a CMakeFiles/rpmsg_pingpong_freertos_example.dir/home/abhishek/udoo/udoo-neo_custom_linux/m4/FreeRTOS_BSP_1.0.1_iMX6SX/rtos/FreeRTOS/Source/queue.c.obj
 .text.prvCopyDataFromQueue
                0x000000001fffa0bc       0x26 CMakeFiles/rpmsg_pingpong_freertos_example.dir/home/abhishek/udoo/udoo-neo_custom_linux/m4/FreeRTOS_BSP_1.0.1_iMX6SX/rtos/FreeRTOS/Source/queue.c.obj
 .text.prvUnlockQueue
                0x000000001fffa0e2       0x6c CMakeFiles/rpmsg_pingpong_freertos_example.dir/home/abhishek/udoo/udoo-neo_custom_linux/m4/FreeRTOS_BSP_1.0.1_iMX6SX/rtos/FreeRTOS/Source/queue.c.obj
 .text.xQueueGenericReset
                0x000000001fffa14e       0x62 CMakeFiles/rpmsg_pingpong_freertos_example.dir/home/abhishek/udoo/udoo-neo_custom_linux/m4/FreeRTOS_BSP_1.0.1_iMX6SX/rtos/FreeRTOS/Source/queue.c.obj
                0x000000001fffa14e                xQueueGenericReset
 .text.xQueueGenericCreate
                0x000000001fffa1b0       0x3c CMakeFiles/rpmsg_pingpong_freertos_example.dir/home/abhishek/udoo/udoo-neo_custom_linux/m4/FreeRTOS_BSP_1.0.1_iMX6SX/rtos/FreeRTOS/Source/queue.c.obj
                0x000000001fffa1b0                xQueueGenericCreate
 .text.xQueueCreateCountingSemaphore
                0x000000001fffa1ec       0x2a CMakeFiles/rpmsg_pingpong_freertos_example.dir/home/abhishek/udoo/udoo-neo_custom_linux/m4/FreeRTOS_BSP_1.0.1_iMX6SX/rtos/FreeRTOS/Source/queue.c.obj
                0x000000001fffa1ec                xQueueCreateCountingSemaphore
 .text.xQueueGenericSend
                0x000000001fffa216      0x100 CMakeFiles/rpmsg_pingpong_freertos_example.dir/home/abhishek/udoo/udoo-neo_custom_linux/m4/FreeRTOS_BSP_1.0.1_iMX6SX/rtos/FreeRTOS/Source/queue.c.obj
                0x000000001fffa216                xQueueGenericSend
 .text.xQueueGenericSendFromISR
                0x000000001fffa316       0x8a CMakeFiles/rpmsg_pingpong_freertos_example.dir/home/abhishek/udoo/udoo-neo_custom_linux/m4/FreeRTOS_BSP_1.0.1_iMX6SX/rtos/FreeRTOS/Source/queue.c.obj
                0x000000001fffa316                xQueueGenericSendFromISR
 .text.xQueueGenericReceive
                0x000000001fffa3a0      0x10c CMakeFiles/rpmsg_pingpong_freertos_example.dir/home/abhishek/udoo/udoo-neo_custom_linux/m4/FreeRTOS_BSP_1.0.1_iMX6SX/rtos/FreeRTOS/Source/queue.c.obj
                0x000000001fffa3a0                xQueueGenericReceive
 .text.xQueueReceiveFromISR
                0x000000001fffa4ac       0x70 CMakeFiles/rpmsg_pingpong_freertos_example.dir/home/abhishek/udoo/udoo-neo_custom_linux/m4/FreeRTOS_BSP_1.0.1_iMX6SX/rtos/FreeRTOS/Source/queue.c.obj
                0x000000001fffa4ac                xQueueReceiveFromISR
 .text.vQueueUnregisterQueue
                0x000000001fffa51c       0x24 CMakeFiles/rpmsg_pingpong_freertos_example.dir/home/abhishek/udoo/udoo-neo_custom_linux/m4/FreeRTOS_BSP_1.0.1_iMX6SX/rtos/FreeRTOS/Source/queue.c.obj
                0x000000001fffa51c                vQueueUnregisterQueue
 .text.vQueueDelete
                0x000000001fffa540       0x22 CMakeFiles/rpmsg_pingpong_freertos_example.dir/home/abhishek/udoo/udoo-neo_custom_linux/m4/FreeRTOS_BSP_1.0.1_iMX6SX/rtos/FreeRTOS/Source/queue.c.obj
                0x000000001fffa540                vQueueDelete
 .text.prvIdleTask
                0x000000001fffa562        0x2 CMakeFiles/rpmsg_pingpong_freertos_example.dir/home/abhishek/udoo/udoo-neo_custom_linux/m4/FreeRTOS_BSP_1.0.1_iMX6SX/rtos/FreeRTOS/Source/tasks.c.obj
 .text.prvResetNextTaskUnblockTime
                0x000000001fffa564       0x24 CMakeFiles/rpmsg_pingpong_freertos_example.dir/home/abhishek/udoo/udoo-neo_custom_linux/m4/FreeRTOS_BSP_1.0.1_iMX6SX/rtos/FreeRTOS/Source/tasks.c.obj
 .text.prvAddCurrentTaskToDelayedList
                0x000000001fffa588       0x50 CMakeFiles/rpmsg_pingpong_freertos_example.dir/home/abhishek/udoo/udoo-neo_custom_linux/m4/FreeRTOS_BSP_1.0.1_iMX6SX/rtos/FreeRTOS/Source/tasks.c.obj
 .text.xTaskGenericCreate
                0x000000001fffa5d8      0x1a4 CMakeFiles/rpmsg_pingpong_freertos_example.dir/home/abhishek/udoo/udoo-neo_custom_linux/m4/FreeRTOS_BSP_1.0.1_iMX6SX/rtos/FreeRTOS/Source/tasks.c.obj
                0x000000001fffa5d8                xTaskGenericCreate
 .text.vTaskStartScheduler
                0x000000001fffa77c       0x54 CMakeFiles/rpmsg_pingpong_freertos_example.dir/home/abhishek/udoo/udoo-neo_custom_linux/m4/FreeRTOS_BSP_1.0.1_iMX6SX/rtos/FreeRTOS/Source/tasks.c.obj
                0x000000001fffa77c                vTaskStartScheduler
 .text.vTaskSuspendAll
                0x000000001fffa7d0       0x10 CMakeFiles/rpmsg_pingpong_freertos_example.dir/home/abhishek/udoo/udoo-neo_custom_linux/m4/FreeRTOS_BSP_1.0.1_iMX6SX/rtos/FreeRTOS/Source/tasks.c.obj
                0x000000001fffa7d0                vTaskSuspendAll
 .text.xTaskIncrementTick
                0x000000001fffa7e0      0x118 CMakeFiles/rpmsg_pingpong_freertos_example.dir/home/abhishek/udoo/udoo-neo_custom_linux/m4/FreeRTOS_BSP_1.0.1_iMX6SX/rtos/FreeRTOS/Source/tasks.c.obj
                0x000000001fffa7e0                xTaskIncrementTick
 .text.xTaskResumeAll
                0x000000001fffa8f8       0xc8 CMakeFiles/rpmsg_pingpong_freertos_example.dir/home/abhishek/udoo/udoo-neo_custom_linux/m4/FreeRTOS_BSP_1.0.1_iMX6SX/rtos/FreeRTOS/Source/tasks.c.obj
                0x000000001fffa8f8                xTaskResumeAll
 .text.vTaskDelay
                0x000000001fffa9c0       0x48 CMakeFiles/rpmsg_pingpong_freertos_example.dir/home/abhishek/udoo/udoo-neo_custom_linux/m4/FreeRTOS_BSP_1.0.1_iMX6SX/rtos/FreeRTOS/Source/tasks.c.obj
                0x000000001fffa9c0                vTaskDelay
 .text.vTaskSwitchContext
                0x000000001fffaa08       0x70 CMakeFiles/rpmsg_pingpong_freertos_example.dir/home/abhishek/udoo/udoo-neo_custom_linux/m4/FreeRTOS_BSP_1.0.1_iMX6SX/rtos/FreeRTOS/Source/tasks.c.obj
                0x000000001fffaa08                vTaskSwitchContext
 .text.vTaskPlaceOnEventList
                0x000000001fffaa78       0x4c CMakeFiles/rpmsg_pingpong_freertos_example.dir/home/abhishek/udoo/udoo-neo_custom_linux/m4/FreeRTOS_BSP_1.0.1_iMX6SX/rtos/FreeRTOS/Source/tasks.c.obj
                0x000000001fffaa78                vTaskPlaceOnEventList
 .text.xTaskRemoveFromEventList
                0x000000001fffaac4       0x74 CMakeFiles/rpmsg_pingpong_freertos_example.dir/home/abhishek/udoo/udoo-neo_custom_linux/m4/FreeRTOS_BSP_1.0.1_iMX6SX/rtos/FreeRTOS/Source/tasks.c.obj
                0x000000001fffaac4                xTaskRemoveFromEventList
 .text.vTaskSetTimeOutState
                0x000000001fffab38       0x20 CMakeFiles/rpmsg_pingpong_freertos_example.dir/home/abhishek/udoo/udoo-neo_custom_linux/m4/FreeRTOS_BSP_1.0.1_iMX6SX/rtos/FreeRTOS/Source/tasks.c.obj
                0x000000001fffab38                vTaskSetTimeOutState
 .text.xTaskCheckForTimeOut
                0x000000001fffab58       0x5c CMakeFiles/rpmsg_pingpong_freertos_example.dir/home/abhishek/udoo/udoo-neo_custom_linux/m4/FreeRTOS_BSP_1.0.1_iMX6SX/rtos/FreeRTOS/Source/tasks.c.obj
                0x000000001fffab58                xTaskCheckForTimeOut
 .text.vTaskMissedYield
                0x000000001fffabb4        0xc CMakeFiles/rpmsg_pingpong_freertos_example.dir/home/abhishek/udoo/udoo-neo_custom_linux/m4/FreeRTOS_BSP_1.0.1_iMX6SX/rtos/FreeRTOS/Source/tasks.c.obj
                0x000000001fffabb4                vTaskMissedYield
 .text.debug_putc
                0x000000001fffabc0       0x28 CMakeFiles/rpmsg_pingpong_freertos_example.dir/home/abhishek/udoo/udoo-neo_custom_linux/m4/FreeRTOS_BSP_1.0.1_iMX6SX/platform/utilities/src/debug_console_imx.c.obj
 .text.UART_ReceiveDataPolling
                0x000000001fffabe8       0x24 CMakeFiles/rpmsg_pingpong_freertos_example.dir/home/abhishek/udoo/udoo-neo_custom_linux/m4/FreeRTOS_BSP_1.0.1_iMX6SX/platform/utilities/src/debug_console_imx.c.obj
 .text.UART_SendDataPolling
                0x000000001fffac0c       0x40 CMakeFiles/rpmsg_pingpong_freertos_example.dir/home/abhishek/udoo/udoo-neo_custom_linux/m4/FreeRTOS_BSP_1.0.1_iMX6SX/platform/utilities/src/debug_console_imx.c.obj
 .text.DbgConsole_Init
                0x000000001fffac4c       0x54 CMakeFiles/rpmsg_pingpong_freertos_example.dir/home/abhishek/udoo/udoo-neo_custom_linux/m4/FreeRTOS_BSP_1.0.1_iMX6SX/platform/utilities/src/debug_console_imx.c.obj
                0x000000001fffac4c                DbgConsole_Init
 .text._write   0x000000001fffaca0       0x28 CMakeFiles/rpmsg_pingpong_freertos_example.dir/home/abhishek/udoo/udoo-neo_custom_linux/m4/FreeRTOS_BSP_1.0.1_iMX6SX/platform/utilities/src/debug_console_imx.c.obj
                0x000000001fffaca0                _write
 .text._read    0x000000001fffacc8       0x20 CMakeFiles/rpmsg_pingpong_freertos_example.dir/home/abhishek/udoo/udoo-neo_custom_linux/m4/FreeRTOS_BSP_1.0.1_iMX6SX/platform/utilities/src/debug_console_imx.c.obj
                0x000000001fffacc8                _read
 .text.debug_printf
                0x000000001ffface8       0x38 CMakeFiles/rpmsg_pingpong_freertos_example.dir/home/abhishek/udoo/udoo-neo_custom_linux/m4/FreeRTOS_BSP_1.0.1_iMX6SX/platform/utilities/src/debug_console_imx.c.obj
                0x000000001ffface8                debug_printf
 .text.mknumstr
                0x000000001fffad20       0x6a CMakeFiles/rpmsg_pingpong_freertos_example.dir/home/abhishek/udoo/udoo-neo_custom_linux/m4/FreeRTOS_BSP_1.0.1_iMX6SX/platform/utilities/src/print_scan.c.obj
 .text.fput_pad.isra.0
                0x000000001fffad8a       0x26 CMakeFiles/rpmsg_pingpong_freertos_example.dir/home/abhishek/udoo/udoo-neo_custom_linux/m4/FreeRTOS_BSP_1.0.1_iMX6SX/platform/utilities/src/print_scan.c.obj
 .text._doprint
                0x000000001fffadb0      0x41c CMakeFiles/rpmsg_pingpong_freertos_example.dir/home/abhishek/udoo/udoo-neo_custom_linux/m4/FreeRTOS_BSP_1.0.1_iMX6SX/platform/utilities/src/print_scan.c.obj
                0x000000001fffadb0                _doprint
 .text.SystemInit
                0x000000001fffb1cc       0x6c CMakeFiles/rpmsg_pingpong_freertos_example.dir/home/abhishek/udoo/udoo-neo_custom_linux/m4/FreeRTOS_BSP_1.0.1_iMX6SX/platform/devices/MCIMX6X/startup/system_MCIMX6X_M4.c.obj
                0x000000001fffb1cc                SystemInit
 .text.configure_uart_pins
                0x000000001fffb238       0x2c CMakeFiles/rpmsg_pingpong_freertos_example.dir/home/abhishek/udoo/udoo-neo_custom_linux/m4/FreeRTOS_BSP_1.0.1_iMX6SX/examples/imx6sx_sdb_m4/pin_mux.c.obj
                0x000000001fffb238                configure_uart_pins
 .text.BOARD_ClockInit
                0x000000001fffb264       0x3c CMakeFiles/rpmsg_pingpong_freertos_example.dir/home/abhishek/udoo/udoo-neo_custom_linux/m4/FreeRTOS_BSP_1.0.1_iMX6SX/examples/imx6sx_sdb_m4/board.c.obj
                0x000000001fffb264                BOARD_ClockInit
 .text.dbg_uart_init
                0x000000001fffb2a0       0x58 CMakeFiles/rpmsg_pingpong_freertos_example.dir/home/abhishek/udoo/udoo-neo_custom_linux/m4/FreeRTOS_BSP_1.0.1_iMX6SX/examples/imx6sx_sdb_m4/board.c.obj
                0x000000001fffb2a0                dbg_uart_init
 .text.BOARD_RdcInit
                0x000000001fffb2f8       0x10 CMakeFiles/rpmsg_pingpong_freertos_example.dir/home/abhishek/udoo/udoo-neo_custom_linux/m4/FreeRTOS_BSP_1.0.1_iMX6SX/examples/imx6sx_sdb_m4/board.c.obj
                0x000000001fffb2f8                BOARD_RdcInit
 .text.hardware_init
                0x000000001fffb308       0x1c CMakeFiles/rpmsg_pingpong_freertos_example.dir/home/abhishek/udoo/udoo-neo_custom_linux/m4/FreeRTOS_BSP_1.0.1_iMX6SX/examples/imx6sx_sdb_m4/demo_apps/rpmsg/pingpong_freertos/hardware_init.c.obj
                0x000000001fffb308                hardware_init
 .text.UART_Deinit
                0x000000001fffb324       0x5e CMakeFiles/rpmsg_pingpong_freertos_example.dir/home/abhishek/udoo/udoo-neo_custom_linux/m4/FreeRTOS_BSP_1.0.1_iMX6SX/platform/drivers/src/uart_imx.c.obj
                0x000000001fffb324                UART_Deinit
 *fill*         0x000000001fffb382        0x2 
 .text.UART_SetBaudRate
                0x000000001fffb384       0xcc CMakeFiles/rpmsg_pingpong_freertos_example.dir/home/abhishek/udoo/udoo-neo_custom_linux/m4/FreeRTOS_BSP_1.0.1_iMX6SX/platform/drivers/src/uart_imx.c.obj
                0x000000001fffb384                UART_SetBaudRate
 .text.UART_Init
                0x000000001fffb450       0x60 CMakeFiles/rpmsg_pingpong_freertos_example.dir/home/abhishek/udoo/udoo-neo_custom_linux/m4/FreeRTOS_BSP_1.0.1_iMX6SX/platform/drivers/src/uart_imx.c.obj
                0x000000001fffb450                UART_Init
 .text.UART_GetStatusFlag
                0x000000001fffb4b0        0xe CMakeFiles/rpmsg_pingpong_freertos_example.dir/home/abhishek/udoo/udoo-neo_custom_linux/m4/FreeRTOS_BSP_1.0.1_iMX6SX/platform/drivers/src/uart_imx.c.obj
                0x000000001fffb4b0                UART_GetStatusFlag
 *fill*         0x000000001fffb4be        0x2 
 .text.MU_SendMsg
                0x000000001fffb4c0       0x30 CMakeFiles/rpmsg_pingpong_freertos_example.dir/home/abhishek/udoo/udoo-neo_custom_linux/m4/FreeRTOS_BSP_1.0.1_iMX6SX/platform/drivers/src/mu_imx.c.obj
                0x000000001fffb4c0                MU_SendMsg
 .text.MU_TryReceiveMsg
                0x000000001fffb4f0       0x3c CMakeFiles/rpmsg_pingpong_freertos_example.dir/home/abhishek/udoo/udoo-neo_custom_linux/m4/FreeRTOS_BSP_1.0.1_iMX6SX/platform/drivers/src/mu_imx.c.obj
                0x000000001fffb4f0                MU_TryReceiveMsg
 .text.__assert_func
                0x000000001fffb52c       0x3c /home/abhishek/udoo/udoo-neo_custom_linux/m4/gcc-arm-none-eabi-7-2018-q2-update-linux/gcc-arm-none-eabi-7-2018-q2-update/bin/../lib/gcc/arm-none-eabi/7.3.1/../../../../arm-none-eabi/lib/thumb/v7e-m/fpv4-sp/hard/libc_nano.a(lib_a-assert.o)
                0x000000001fffb52c                __assert_func
 .text.exit     0x000000001fffb568       0x28 /home/abhishek/udoo/udoo-neo_custom_linux/m4/gcc-arm-none-eabi-7-2018-q2-update-linux/gcc-arm-none-eabi-7-2018-q2-update/bin/../lib/gcc/arm-none-eabi/7.3.1/../../../../arm-none-eabi/lib/thumb/v7e-m/fpv4-sp/hard/libc_nano.a(lib_a-exit.o)
                0x000000001fffb568                exit
 .text.fprintf  0x000000001fffb590       0x24 /home/abhishek/udoo/udoo-neo_custom_linux/m4/gcc-arm-none-eabi-7-2018-q2-update-linux/gcc-arm-none-eabi-7-2018-q2-update/bin/../lib/gcc/arm-none-eabi/7.3.1/../../../../arm-none-eabi/lib/thumb/v7e-m/fpv4-sp/hard/libc_nano.a(lib_a-fprintf.o)
                0x000000001fffb590                fprintf
                0x000000001fffb590                fiprintf
 .text.__libc_init_array
                0x000000001fffb5b4       0x48 /home/abhishek/udoo/udoo-neo_custom_linux/m4/gcc-arm-none-eabi-7-2018-q2-update-linux/gcc-arm-none-eabi-7-2018-q2-update/bin/../lib/gcc/arm-none-eabi/7.3.1/../../../../arm-none-eabi/lib/thumb/v7e-m/fpv4-sp/hard/libc_nano.a(lib_a-init.o)
                0x000000001fffb5b4                __libc_init_array
 .text.memcpy   0x000000001fffb5fc       0x16 /home/abhishek/udoo/udoo-neo_custom_linux/m4/gcc-arm-none-eabi-7-2018-q2-update-linux/gcc-arm-none-eabi-7-2018-q2-update/bin/../lib/gcc/arm-none-eabi/7.3.1/../../../../arm-none-eabi/lib/thumb/v7e-m/fpv4-sp/hard/libc_nano.a(lib_a-memcpy-stub.o)
                0x000000001fffb5fc                memcpy
 .text.memset   0x000000001fffb612       0x10 /home/abhishek/udoo/udoo-neo_custom_linux/m4/gcc-arm-none-eabi-7-2018-q2-update-linux/gcc-arm-none-eabi-7-2018-q2-update/bin/../lib/gcc/arm-none-eabi/7.3.1/../../../../arm-none-eabi/lib/thumb/v7e-m/fpv4-sp/hard/libc_nano.a(lib_a-memset.o)
                0x000000001fffb612                memset
 .text.__sfputc_r
                0x000000001fffb622       0x2e /home/abhishek/udoo/udoo-neo_custom_linux/m4/gcc-arm-none-eabi-7-2018-q2-update-linux/gcc-arm-none-eabi-7-2018-q2-update/bin/../lib/gcc/arm-none-eabi/7.3.1/../../../../arm-none-eabi/lib/thumb/v7e-m/fpv4-sp/hard/libc_nano.a(lib_a-nano-vfprintf.o)
 .text.__sfputs_r
                0x000000001fffb650       0x24 /home/abhishek/udoo/udoo-neo_custom_linux/m4/gcc-arm-none-eabi-7-2018-q2-update-linux/gcc-arm-none-eabi-7-2018-q2-update/bin/../lib/gcc/arm-none-eabi/7.3.1/../../../../arm-none-eabi/lib/thumb/v7e-m/fpv4-sp/hard/libc_nano.a(lib_a-nano-vfprintf.o)
                0x000000001fffb650                __sfputs_r
 .text._vfprintf_r
                0x000000001fffb674      0x22c /home/abhishek/udoo/udoo-neo_custom_linux/m4/gcc-arm-none-eabi-7-2018-q2-update-linux/gcc-arm-none-eabi-7-2018-q2-update/bin/../lib/gcc/arm-none-eabi/7.3.1/../../../../arm-none-eabi/lib/thumb/v7e-m/fpv4-sp/hard/libc_nano.a(lib_a-nano-vfprintf.o)
                0x000000001fffb674                _vfiprintf_r
                0x000000001fffb674                _vfprintf_r
 .text._printf_common
                0x000000001fffb8a0       0xea /home/abhishek/udoo/udoo-neo_custom_linux/m4/gcc-arm-none-eabi-7-2018-q2-update-linux/gcc-arm-none-eabi-7-2018-q2-update/bin/../lib/gcc/arm-none-eabi/7.3.1/../../../../arm-none-eabi/lib/thumb/v7e-m/fpv4-sp/hard/libc_nano.a(lib_a-nano-vfprintf_i.o)
                0x000000001fffb8a0                _printf_common
 *fill*         0x000000001fffb98a        0x2 
 .text._printf_i
                0x000000001fffb98c      0x224 /home/abhishek/udoo/udoo-neo_custom_linux/m4/gcc-arm-none-eabi-7-2018-q2-update-linux/gcc-arm-none-eabi-7-2018-q2-update/bin/../lib/gcc/arm-none-eabi/7.3.1/../../../../arm-none-eabi/lib/thumb/v7e-m/fpv4-sp/hard/libc_nano.a(lib_a-nano-vfprintf_i.o)
                0x000000001fffb98c                _printf_i
 .text.strncmp  0x000000001fffbbb0       0x24 /home/abhishek/udoo/udoo-neo_custom_linux/m4/gcc-arm-none-eabi-7-2018-q2-update-linux/gcc-arm-none-eabi-7-2018-q2-update/bin/../lib/gcc/arm-none-eabi/7.3.1/../../../../arm-none-eabi/lib/thumb/v7e-m/fpv4-sp/hard/libc_nano.a(lib_a-strncmp.o)
                0x000000001fffbbb0                strncmp
 .text.strncpy  0x000000001fffbbd4       0x2a /home/abhishek/udoo/udoo-neo_custom_linux/m4/gcc-arm-none-eabi-7-2018-q2-update-linux/gcc-arm-none-eabi-7-2018-q2-update/bin/../lib/gcc/arm-none-eabi/7.3.1/../../../../arm-none-eabi/lib/thumb/v7e-m/fpv4-sp/hard/libc_nano.a(lib_a-strncpy.o)
                0x000000001fffbbd4                strncpy
 *fill*         0x000000001fffbbfe        0x2 
 .text.__swbuf_r
                0x000000001fffbc00       0xa4 /home/abhishek/udoo/udoo-neo_custom_linux/m4/gcc-arm-none-eabi-7-2018-q2-update-linux/gcc-arm-none-eabi-7-2018-q2-update/bin/../lib/gcc/arm-none-eabi/7.3.1/../../../../arm-none-eabi/lib/thumb/v7e-m/fpv4-sp/hard/libc_nano.a(lib_a-wbuf.o)
                0x000000001fffbc00                __swbuf_r
 .text.__swsetup_r
                0x000000001fffbca4       0xdc /home/abhishek/udoo/udoo-neo_custom_linux/m4/gcc-arm-none-eabi-7-2018-q2-update-linux/gcc-arm-none-eabi-7-2018-q2-update/bin/../lib/gcc/arm-none-eabi/7.3.1/../../../../arm-none-eabi/lib/thumb/v7e-m/fpv4-sp/hard/libc_nano.a(lib_a-wsetup.o)
                0x000000001fffbca4                __swsetup_r
 .text.abort    0x000000001fffbd80        0xe /home/abhishek/udoo/udoo-neo_custom_linux/m4/gcc-arm-none-eabi-7-2018-q2-update-linux/gcc-arm-none-eabi-7-2018-q2-update/bin/../lib/gcc/arm-none-eabi/7.3.1/../../../../arm-none-eabi/lib/thumb/v7e-m/fpv4-sp/hard/libc_nano.a(lib_a-abort.o)
                0x000000001fffbd80                abort
 *fill*         0x000000001fffbd8e        0x2 
 .text.__sflush_r
                0x000000001fffbd90      0x10c /home/abhishek/udoo/udoo-neo_custom_linux/m4/gcc-arm-none-eabi-7-2018-q2-update-linux/gcc-arm-none-eabi-7-2018-q2-update/bin/../lib/gcc/arm-none-eabi/7.3.1/../../../../arm-none-eabi/lib/thumb/v7e-m/fpv4-sp/hard/libc_nano.a(lib_a-fflush.o)
                0x000000001fffbd90                __sflush_r
 .text._fflush_r
                0x000000001fffbe9c       0x54 /home/abhishek/udoo/udoo-neo_custom_linux/m4/gcc-arm-none-eabi-7-2018-q2-update-linux/gcc-arm-none-eabi-7-2018-q2-update/bin/../lib/gcc/arm-none-eabi/7.3.1/../../../../arm-none-eabi/lib/thumb/v7e-m/fpv4-sp/hard/libc_nano.a(lib_a-fflush.o)
                0x000000001fffbe9c                _fflush_r
 .text.std      0x000000001fffbef0       0x48 /home/abhishek/udoo/udoo-neo_custom_linux/m4/gcc-arm-none-eabi-7-2018-q2-update-linux/gcc-arm-none-eabi-7-2018-q2-update/bin/../lib/gcc/arm-none-eabi/7.3.1/../../../../arm-none-eabi/lib/thumb/v7e-m/fpv4-sp/hard/libc_nano.a(lib_a-findfp.o)
 .text._cleanup_r
                0x000000001fffbf38        0xc /home/abhishek/udoo/udoo-neo_custom_linux/m4/gcc-arm-none-eabi-7-2018-q2-update-linux/gcc-arm-none-eabi-7-2018-q2-update/bin/../lib/gcc/arm-none-eabi/7.3.1/../../../../arm-none-eabi/lib/thumb/v7e-m/fpv4-sp/hard/libc_nano.a(lib_a-findfp.o)
                0x000000001fffbf38                _cleanup_r
 .text.__sfmoreglue
                0x000000001fffbf44       0x2c /home/abhishek/udoo/udoo-neo_custom_linux/m4/gcc-arm-none-eabi-7-2018-q2-update-linux/gcc-arm-none-eabi-7-2018-q2-update/bin/../lib/gcc/arm-none-eabi/7.3.1/../../../../arm-none-eabi/lib/thumb/v7e-m/fpv4-sp/hard/libc_nano.a(lib_a-findfp.o)
                0x000000001fffbf44                __sfmoreglue
 .text.__sinit  0x000000001fffbf70       0x60 /home/abhishek/udoo/udoo-neo_custom_linux/m4/gcc-arm-none-eabi-7-2018-q2-update-linux/gcc-arm-none-eabi-7-2018-q2-update/bin/../lib/gcc/arm-none-eabi/7.3.1/../../../../arm-none-eabi/lib/thumb/v7e-m/fpv4-sp/hard/libc_nano.a(lib_a-findfp.o)
                0x000000001fffbf70                __sinit
 .text.__sfp    0x000000001fffbfd0       0x78 /home/abhishek/udoo/udoo-neo_custom_linux/m4/gcc-arm-none-eabi-7-2018-q2-update-linux/gcc-arm-none-eabi-7-2018-q2-update/bin/../lib/gcc/arm-none-eabi/7.3.1/../../../../arm-none-eabi/lib/thumb/v7e-m/fpv4-sp/hard/libc_nano.a(lib_a-findfp.o)
                0x000000001fffbfd0                __sfp
 .text._fwalk_reent
                0x000000001fffc048       0x3c /home/abhishek/udoo/udoo-neo_custom_linux/m4/gcc-arm-none-eabi-7-2018-q2-update-linux/gcc-arm-none-eabi-7-2018-q2-update/bin/../lib/gcc/arm-none-eabi/7.3.1/../../../../arm-none-eabi/lib/thumb/v7e-m/fpv4-sp/hard/libc_nano.a(lib_a-fwalk.o)
                0x000000001fffc048                _fwalk_reent
 .text.__swhatbuf_r
                0x000000001fffc084       0x48 /home/abhishek/udoo/udoo-neo_custom_linux/m4/gcc-arm-none-eabi-7-2018-q2-update-linux/gcc-arm-none-eabi-7-2018-q2-update/bin/../lib/gcc/arm-none-eabi/7.3.1/../../../../arm-none-eabi/lib/thumb/v7e-m/fpv4-sp/hard/libc_nano.a(lib_a-makebuf.o)
                0x000000001fffc084                __swhatbuf_r
 .text.__smakebuf_r
                0x000000001fffc0cc       0x80 /home/abhishek/udoo/udoo-neo_custom_linux/m4/gcc-arm-none-eabi-7-2018-q2-update-linux/gcc-arm-none-eabi-7-2018-q2-update/bin/../lib/gcc/arm-none-eabi/7.3.1/../../../../arm-none-eabi/lib/thumb/v7e-m/fpv4-sp/hard/libc_nano.a(lib_a-makebuf.o)
                0x000000001fffc0cc                __smakebuf_r
 .text._free_r  0x000000001fffc14c       0x9c /home/abhishek/udoo/udoo-neo_custom_linux/m4/gcc-arm-none-eabi-7-2018-q2-update-linux/gcc-arm-none-eabi-7-2018-q2-update/bin/../lib/gcc/arm-none-eabi/7.3.1/../../../../arm-none-eabi/lib/thumb/v7e-m/fpv4-sp/hard/libc_nano.a(lib_a-nano-freer.o)
                0x000000001fffc14c                _free_r
 .text._malloc_r
                0x000000001fffc1e8       0xb4 /home/abhishek/udoo/udoo-neo_custom_linux/m4/gcc-arm-none-eabi-7-2018-q2-update-linux/gcc-arm-none-eabi-7-2018-q2-update/bin/../lib/gcc/arm-none-eabi/7.3.1/../../../../arm-none-eabi/lib/thumb/v7e-m/fpv4-sp/hard/libc_nano.a(lib_a-nano-mallocr.o)
                0x000000001fffc1e8                _malloc_r
 .text._sbrk_r  0x000000001fffc29c       0x20 /home/abhishek/udoo/udoo-neo_custom_linux/m4/gcc-arm-none-eabi-7-2018-q2-update-linux/gcc-arm-none-eabi-7-2018-q2-update/bin/../lib/gcc/arm-none-eabi/7.3.1/../../../../arm-none-eabi/lib/thumb/v7e-m/fpv4-sp/hard/libc_nano.a(lib_a-sbrkr.o)
                0x000000001fffc29c                _sbrk_r
 .text._raise_r
                0x000000001fffc2bc       0x50 /home/abhishek/udoo/udoo-neo_custom_linux/m4/gcc-arm-none-eabi-7-2018-q2-update-linux/gcc-arm-none-eabi-7-2018-q2-update/bin/../lib/gcc/arm-none-eabi/7.3.1/../../../../arm-none-eabi/lib/thumb/v7e-m/fpv4-sp/hard/libc_nano.a(lib_a-signal.o)
                0x000000001fffc2bc                _raise_r
 .text.raise    0x000000001fffc30c       0x10 /home/abhishek/udoo/udoo-neo_custom_linux/m4/gcc-arm-none-eabi-7-2018-q2-update-linux/gcc-arm-none-eabi-7-2018-q2-update/bin/../lib/gcc/arm-none-eabi/7.3.1/../../../../arm-none-eabi/lib/thumb/v7e-m/fpv4-sp/hard/libc_nano.a(lib_a-signal.o)
                0x000000001fffc30c                raise
 .text._kill_r  0x000000001fffc31c       0x24 /home/abhishek/udoo/udoo-neo_custom_linux/m4/gcc-arm-none-eabi-7-2018-q2-update-linux/gcc-arm-none-eabi-7-2018-q2-update/bin/../lib/gcc/arm-none-eabi/7.3.1/../../../../arm-none-eabi/lib/thumb/v7e-m/fpv4-sp/hard/libc_nano.a(lib_a-signalr.o)
                0x000000001fffc31c                _kill_r
 .text._getpid_r
                0x000000001fffc340        0x4 /home/abhishek/udoo/udoo-neo_custom_linux/m4/gcc-arm-none-eabi-7-2018-q2-update-linux/gcc-arm-none-eabi-7-2018-q2-update/bin/../lib/gcc/arm-none-eabi/7.3.1/../../../../arm-none-eabi/lib/thumb/v7e-m/fpv4-sp/hard/libc_nano.a(lib_a-signalr.o)
                0x000000001fffc340                _getpid_r
 .text.__sread  0x000000001fffc344       0x22 /home/abhishek/udoo/udoo-neo_custom_linux/m4/gcc-arm-none-eabi-7-2018-q2-update-linux/gcc-arm-none-eabi-7-2018-q2-update/bin/../lib/gcc/arm-none-eabi/7.3.1/../../../../arm-none-eabi/lib/thumb/v7e-m/fpv4-sp/hard/libc_nano.a(lib_a-stdio.o)
                0x000000001fffc344                __sread
 .text.__swrite
                0x000000001fffc366       0x38 /home/abhishek/udoo/udoo-neo_custom_linux/m4/gcc-arm-none-eabi-7-2018-q2-update-linux/gcc-arm-none-eabi-7-2018-q2-update/bin/../lib/gcc/arm-none-eabi/7.3.1/../../../../arm-none-eabi/lib/thumb/v7e-m/fpv4-sp/hard/libc_nano.a(lib_a-stdio.o)
                0x000000001fffc366                __swrite
 .text.__sseek  0x000000001fffc39e       0x24 /home/abhishek/udoo/udoo-neo_custom_linux/m4/gcc-arm-none-eabi-7-2018-q2-update-linux/gcc-arm-none-eabi-7-2018-q2-update/bin/../lib/gcc/arm-none-eabi/7.3.1/../../../../arm-none-eabi/lib/thumb/v7e-m/fpv4-sp/hard/libc_nano.a(lib_a-stdio.o)
                0x000000001fffc39e                __sseek
 .text.__sclose
                0x000000001fffc3c2        0x8 /home/abhishek/udoo/udoo-neo_custom_linux/m4/gcc-arm-none-eabi-7-2018-q2-update-linux/gcc-arm-none-eabi-7-2018-q2-update/bin/../lib/gcc/arm-none-eabi/7.3.1/../../../../arm-none-eabi/lib/thumb/v7e-m/fpv4-sp/hard/libc_nano.a(lib_a-stdio.o)
                0x000000001fffc3c2                __sclose
 *fill*         0x000000001fffc3ca        0x2 
 .text._write_r
                0x000000001fffc3cc       0x24 /home/abhishek/udoo/udoo-neo_custom_linux/m4/gcc-arm-none-eabi-7-2018-q2-update-linux/gcc-arm-none-eabi-7-2018-q2-update/bin/../lib/gcc/arm-none-eabi/7.3.1/../../../../arm-none-eabi/lib/thumb/v7e-m/fpv4-sp/hard/libc_nano.a(lib_a-writer.o)
                0x000000001fffc3cc                _write_r
 .text._close_r
                0x000000001fffc3f0       0x20 /home/abhishek/udoo/udoo-neo_custom_linux/m4/gcc-arm-none-eabi-7-2018-q2-update-linux/gcc-arm-none-eabi-7-2018-q2-update/bin/../lib/gcc/arm-none-eabi/7.3.1/../../../../arm-none-eabi/lib/thumb/v7e-m/fpv4-sp/hard/libc_nano.a(lib_a-closer.o)
                0x000000001fffc3f0                _close_r
 .text._fstat_r
                0x000000001fffc410       0x24 /home/abhishek/udoo/udoo-neo_custom_linux/m4/gcc-arm-none-eabi-7-2018-q2-update-linux/gcc-arm-none-eabi-7-2018-q2-update/bin/../lib/gcc/arm-none-eabi/7.3.1/../../../../arm-none-eabi/lib/thumb/v7e-m/fpv4-sp/hard/libc_nano.a(lib_a-fstatr.o)
                0x000000001fffc410                _fstat_r
 .text._isatty_r
                0x000000001fffc434       0x20 /home/abhishek/udoo/udoo-neo_custom_linux/m4/gcc-arm-none-eabi-7-2018-q2-update-linux/gcc-arm-none-eabi-7-2018-q2-update/bin/../lib/gcc/arm-none-eabi/7.3.1/../../../../arm-none-eabi/lib/thumb/v7e-m/fpv4-sp/hard/libc_nano.a(lib_a-isattyr.o)
                0x000000001fffc434                _isatty_r
 .text._lseek_r
                0x000000001fffc454       0x24 /home/abhishek/udoo/udoo-neo_custom_linux/m4/gcc-arm-none-eabi-7-2018-q2-update-linux/gcc-arm-none-eabi-7-2018-q2-update/bin/../lib/gcc/arm-none-eabi/7.3.1/../../../../arm-none-eabi/lib/thumb/v7e-m/fpv4-sp/hard/libc_nano.a(lib_a-lseekr.o)
                0x000000001fffc454                _lseek_r
 .text.__malloc_lock
                0x000000001fffc478        0x2 /home/abhishek/udoo/udoo-neo_custom_linux/m4/gcc-arm-none-eabi-7-2018-q2-update-linux/gcc-arm-none-eabi-7-2018-q2-update/bin/../lib/gcc/arm-none-eabi/7.3.1/../../../../arm-none-eabi/lib/thumb/v7e-m/fpv4-sp/hard/libc_nano.a(lib_a-mlock.o)
                0x000000001fffc478                __malloc_lock
 .text.__malloc_unlock
                0x000000001fffc47a        0x2 /home/abhishek/udoo/udoo-neo_custom_linux/m4/gcc-arm-none-eabi-7-2018-q2-update-linux/gcc-arm-none-eabi-7-2018-q2-update/bin/../lib/gcc/arm-none-eabi/7.3.1/../../../../arm-none-eabi/lib/thumb/v7e-m/fpv4-sp/hard/libc_nano.a(lib_a-mlock.o)
                0x000000001fffc47a                __malloc_unlock
 .text._read_r  0x000000001fffc47c       0x24 /home/abhishek/udoo/udoo-neo_custom_linux/m4/gcc-arm-none-eabi-7-2018-q2-update-linux/gcc-arm-none-eabi-7-2018-q2-update/bin/../lib/gcc/arm-none-eabi/7.3.1/../../../../arm-none-eabi/lib/thumb/v7e-m/fpv4-sp/hard/libc_nano.a(lib_a-readr.o)
                0x000000001fffc47c                _read_r
 .text._close   0x000000001fffc4a0       0x10 /home/abhishek/udoo/udoo-neo_custom_linux/m4/gcc-arm-none-eabi-7-2018-q2-update-linux/gcc-arm-none-eabi-7-2018-q2-update/bin/../lib/gcc/arm-none-eabi/7.3.1/../../../../arm-none-eabi/lib/thumb/v7e-m/fpv4-sp/hard/libnosys.a(close.o)
                0x000000001fffc4a0                _close
 .text._fstat   0x000000001fffc4b0       0x10 /home/abhishek/udoo/udoo-neo_custom_linux/m4/gcc-arm-none-eabi-7-2018-q2-update-linux/gcc-arm-none-eabi-7-2018-q2-update/bin/../lib/gcc/arm-none-eabi/7.3.1/../../../../arm-none-eabi/lib/thumb/v7e-m/fpv4-sp/hard/libnosys.a(fstat.o)
                0x000000001fffc4b0                _fstat
 .text._getpid  0x000000001fffc4c0       0x10 /home/abhishek/udoo/udoo-neo_custom_linux/m4/gcc-arm-none-eabi-7-2018-q2-update-linux/gcc-arm-none-eabi-7-2018-q2-update/bin/../lib/gcc/arm-none-eabi/7.3.1/../../../../arm-none-eabi/lib/thumb/v7e-m/fpv4-sp/hard/libnosys.a(getpid.o)
                0x000000001fffc4c0                _getpid
 .text._isatty  0x000000001fffc4d0       0x10 /home/abhishek/udoo/udoo-neo_custom_linux/m4/gcc-arm-none-eabi-7-2018-q2-update-linux/gcc-arm-none-eabi-7-2018-q2-update/bin/../lib/gcc/arm-none-eabi/7.3.1/../../../../arm-none-eabi/lib/thumb/v7e-m/fpv4-sp/hard/libnosys.a(isatty.o)
                0x000000001fffc4d0                _isatty
 .text._kill    0x000000001fffc4e0       0x10 /home/abhishek/udoo/udoo-neo_custom_linux/m4/gcc-arm-none-eabi-7-2018-q2-update-linux/gcc-arm-none-eabi-7-2018-q2-update/bin/../lib/gcc/arm-none-eabi/7.3.1/../../../../arm-none-eabi/lib/thumb/v7e-m/fpv4-sp/hard/libnosys.a(kill.o)
                0x000000001fffc4e0                _kill
 .text._lseek   0x000000001fffc4f0       0x10 /home/abhishek/udoo/udoo-neo_custom_linux/m4/gcc-arm-none-eabi-7-2018-q2-update-linux/gcc-arm-none-eabi-7-2018-q2-update/bin/../lib/gcc/arm-none-eabi/7.3.1/../../../../arm-none-eabi/lib/thumb/v7e-m/fpv4-sp/hard/libnosys.a(lseek.o)
                0x000000001fffc4f0                _lseek
 .text._sbrk    0x000000001fffc500       0x1c /home/abhishek/udoo/udoo-neo_custom_linux/m4/gcc-arm-none-eabi-7-2018-q2-update-linux/gcc-arm-none-eabi-7-2018-q2-update/bin/../lib/gcc/arm-none-eabi/7.3.1/../../../../arm-none-eabi/lib/thumb/v7e-m/fpv4-sp/hard/libnosys.a(sbrk.o)
                0x000000001fffc500                _sbrk
 .text._exit    0x000000001fffc51c        0x4 /home/abhishek/udoo/udoo-neo_custom_linux/m4/gcc-arm-none-eabi-7-2018-q2-update-linux/gcc-arm-none-eabi-7-2018-q2-update/bin/../lib/gcc/arm-none-eabi/7.3.1/../../../../arm-none-eabi/lib/thumb/v7e-m/fpv4-sp/hard/libnosys.a(_exit.o)
                0x000000001fffc51c                _exit
 *(.rodata)
 *(.rodata*)
 .rodata.PingPongTask.str1.1
                0x000000001fffc520      0x151 CMakeFiles/rpmsg_pingpong_freertos_example.dir/home/abhishek/udoo/udoo-neo_custom_linux/m4/FreeRTOS_BSP_1.0.1_iMX6SX/examples/imx6sx_sdb_m4/demo_apps/rpmsg/pingpong_freertos/pingpong_freertos.c.obj
 .rodata.__func__.11613
                0x000000001fffc671        0xd CMakeFiles/rpmsg_pingpong_freertos_example.dir/home/abhishek/udoo/udoo-neo_custom_linux/m4/FreeRTOS_BSP_1.0.1_iMX6SX/examples/imx6sx_sdb_m4/demo_apps/rpmsg/pingpong_freertos/pingpong_freertos.c.obj
 .rodata.main.str1.1
                0x000000001fffc67e        0xf CMakeFiles/rpmsg_pingpong_freertos_example.dir/home/abhishek/udoo/udoo-neo_custom_linux/m4/FreeRTOS_BSP_1.0.1_iMX6SX/examples/imx6sx_sdb_m4/demo_apps/rpmsg/pingpong_freertos/pingpong_freertos.c.obj
 .rodata.__func__.7343
                0x000000001fffc68d       0x1b CMakeFiles/rpmsg_pingpong_freertos_example.dir/home/abhishek/udoo/udoo-neo_custom_linux/m4/FreeRTOS_BSP_1.0.1_iMX6SX/middleware/multicore/open-amp/rpmsg/rpmsg_rtos.c.obj
 .rodata.__func__.7347
                0x000000001fffc6a8       0x1b CMakeFiles/rpmsg_pingpong_freertos_example.dir/home/abhishek/udoo/udoo-neo_custom_linux/m4/FreeRTOS_BSP_1.0.1_iMX6SX/middleware/multicore/open-amp/rpmsg/rpmsg_rtos.c.obj
 .rodata.__func__.7356
                0x000000001fffc6c3       0x13 CMakeFiles/rpmsg_pingpong_freertos_example.dir/home/abhishek/udoo/udoo-neo_custom_linux/m4/FreeRTOS_BSP_1.0.1_iMX6SX/middleware/multicore/open-amp/rpmsg/rpmsg_rtos.c.obj
 .rodata.rpmsg_channel_created_rtos.str1.1
                0x000000001fffc6d6       0x25 CMakeFiles/rpmsg_pingpong_freertos_example.dir/home/abhishek/udoo/udoo-neo_custom_linux/m4/FreeRTOS_BSP_1.0.1_iMX6SX/middleware/multicore/open-amp/rpmsg/rpmsg_rtos.c.obj
 .rodata.rpmsg_channel_deleted_rtos.str1.1
                0x000000001fffc6fb       0x80 CMakeFiles/rpmsg_pingpong_freertos_example.dir/home/abhishek/udoo/udoo-neo_custom_linux/m4/FreeRTOS_BSP_1.0.1_iMX6SX/middleware/multicore/open-amp/rpmsg/rpmsg_rtos.c.obj
 .rodata.rpmsg_read_rtos_cb.str1.1
                0x000000001fffc77b        0x5 CMakeFiles/rpmsg_pingpong_freertos_example.dir/home/abhishek/udoo/udoo-neo_custom_linux/m4/FreeRTOS_BSP_1.0.1_iMX6SX/middleware/multicore/open-amp/rpmsg/rpmsg_rtos.c.obj
 .rodata.__func__.10321
                0x000000001fffc780        0xa CMakeFiles/rpmsg_pingpong_freertos_example.dir/home/abhishek/udoo/udoo-neo_custom_linux/m4/FreeRTOS_BSP_1.0.1_iMX6SX/middleware/multicore/open-amp/porting/imx6sx_m4/platform.c.obj
 .rodata.__func__.10325
                0x000000001fffc78a        0xe CMakeFiles/rpmsg_pingpong_freertos_example.dir/home/abhishek/udoo/udoo-neo_custom_linux/m4/FreeRTOS_BSP_1.0.1_iMX6SX/middleware/multicore/open-amp/porting/imx6sx_m4/platform.c.obj
 .rodata.__func__.10353
                0x000000001fffc798       0x1a CMakeFiles/rpmsg_pingpong_freertos_example.dir/home/abhishek/udoo/udoo-neo_custom_linux/m4/FreeRTOS_BSP_1.0.1_iMX6SX/middleware/multicore/open-amp/porting/imx6sx_m4/platform.c.obj
 .rodata.__func__.10361
                0x000000001fffc7b2       0x1b CMakeFiles/rpmsg_pingpong_freertos_example.dir/home/abhishek/udoo/udoo-neo_custom_linux/m4/FreeRTOS_BSP_1.0.1_iMX6SX/middleware/multicore/open-amp/porting/imx6sx_m4/platform.c.obj
 .rodata.__func__.10370
                0x000000001fffc7cd       0x1e CMakeFiles/rpmsg_pingpong_freertos_example.dir/home/abhishek/udoo/udoo-neo_custom_linux/m4/FreeRTOS_BSP_1.0.1_iMX6SX/middleware/multicore/open-amp/porting/imx6sx_m4/platform.c.obj
 .rodata.__func__.10374
                0x000000001fffc7eb       0x1f CMakeFiles/rpmsg_pingpong_freertos_example.dir/home/abhishek/udoo/udoo-neo_custom_linux/m4/FreeRTOS_BSP_1.0.1_iMX6SX/middleware/multicore/open-amp/porting/imx6sx_m4/platform.c.obj
 .rodata._shutdown_cpu.str1.1
                0x000000001fffc80a       0x82 CMakeFiles/rpmsg_pingpong_freertos_example.dir/home/abhishek/udoo/udoo-neo_custom_linux/m4/FreeRTOS_BSP_1.0.1_iMX6SX/middleware/multicore/open-amp/porting/imx6sx_m4/platform.c.obj
                                         0x84 (size before relaxing)
 .rodata.platform_interrupt_disable.str1.1
                0x000000001fffc88c       0x21 CMakeFiles/rpmsg_pingpong_freertos_example.dir/home/abhishek/udoo/udoo-neo_custom_linux/m4/FreeRTOS_BSP_1.0.1_iMX6SX/middleware/multicore/open-amp/porting/imx6sx_m4/platform.c.obj
 .rodata.platform_interrupt_disable_all.str1.1
                0x000000001fffc8ad       0x19 CMakeFiles/rpmsg_pingpong_freertos_example.dir/home/abhishek/udoo/udoo-neo_custom_linux/m4/FreeRTOS_BSP_1.0.1_iMX6SX/middleware/multicore/open-amp/porting/imx6sx_m4/platform.c.obj
 .rodata.platform_interrupt_enable.str1.1
                0x000000001fffc8c6       0x46 CMakeFiles/rpmsg_pingpong_freertos_example.dir/home/abhishek/udoo/udoo-neo_custom_linux/m4/FreeRTOS_BSP_1.0.1_iMX6SX/middleware/multicore/open-amp/porting/imx6sx_m4/platform.c.obj
 .rodata.platform_interrupt_enable_all.str1.1
                0x000000001fffc90c       0x18 CMakeFiles/rpmsg_pingpong_freertos_example.dir/home/abhishek/udoo/udoo-neo_custom_linux/m4/FreeRTOS_BSP_1.0.1_iMX6SX/middleware/multicore/open-amp/porting/imx6sx_m4/platform.c.obj
 .rodata.rpmsg_start_ipc.str1.1
                0x000000001fffc924        0xc CMakeFiles/rpmsg_pingpong_freertos_example.dir/home/abhishek/udoo/udoo-neo_custom_linux/m4/FreeRTOS_BSP_1.0.1_iMX6SX/middleware/multicore/open-amp/rpmsg/rpmsg_core.c.obj
 .rodata.__func__.7086
                0x000000001fffc930        0x9 CMakeFiles/rpmsg_pingpong_freertos_example.dir/home/abhishek/udoo/udoo-neo_custom_linux/m4/FreeRTOS_BSP_1.0.1_iMX6SX/middleware/multicore/open-amp/porting/env/freertos/rpmsg_porting.c.obj
 .rodata.__func__.7089
                0x000000001fffc939        0xb CMakeFiles/rpmsg_pingpong_freertos_example.dir/home/abhishek/udoo/udoo-neo_custom_linux/m4/FreeRTOS_BSP_1.0.1_iMX6SX/middleware/multicore/open-amp/porting/env/freertos/rpmsg_porting.c.obj
 .rodata.__func__.7178
                0x000000001fffc944       0x11 CMakeFiles/rpmsg_pingpong_freertos_example.dir/home/abhishek/udoo/udoo-neo_custom_linux/m4/FreeRTOS_BSP_1.0.1_iMX6SX/middleware/multicore/open-amp/porting/env/freertos/rpmsg_porting.c.obj
 .rodata.__func__.7192
                0x000000001fffc955       0x15 CMakeFiles/rpmsg_pingpong_freertos_example.dir/home/abhishek/udoo/udoo-neo_custom_linux/m4/FreeRTOS_BSP_1.0.1_iMX6SX/middleware/multicore/open-amp/porting/env/freertos/rpmsg_porting.c.obj
 .rodata.__func__.7211
                0x000000001fffc96a        0x8 CMakeFiles/rpmsg_pingpong_freertos_example.dir/home/abhishek/udoo/udoo-neo_custom_linux/m4/FreeRTOS_BSP_1.0.1_iMX6SX/middleware/multicore/open-amp/porting/env/freertos/rpmsg_porting.c.obj
 .rodata.env_deinit.str1.1
                0x000000001fffc972       0x15 CMakeFiles/rpmsg_pingpong_freertos_example.dir/home/abhishek/udoo/udoo-neo_custom_linux/m4/FreeRTOS_BSP_1.0.1_iMX6SX/middleware/multicore/open-amp/porting/env/freertos/rpmsg_porting.c.obj
 .rodata.env_init.str1.1
                0x000000001fffc987       0xa0 CMakeFiles/rpmsg_pingpong_freertos_example.dir/home/abhishek/udoo/udoo-neo_custom_linux/m4/FreeRTOS_BSP_1.0.1_iMX6SX/middleware/multicore/open-amp/porting/env/freertos/rpmsg_porting.c.obj
 .rodata.env_isr.str1.1
                0x000000001fffca27       0x12 CMakeFiles/rpmsg_pingpong_freertos_example.dir/home/abhishek/udoo/udoo-neo_custom_linux/m4/FreeRTOS_BSP_1.0.1_iMX6SX/middleware/multicore/open-amp/porting/env/freertos/rpmsg_porting.c.obj
 .rodata.env_register_isr.str1.1
                0x000000001fffca39       0x13 CMakeFiles/rpmsg_pingpong_freertos_example.dir/home/abhishek/udoo/udoo-neo_custom_linux/m4/FreeRTOS_BSP_1.0.1_iMX6SX/middleware/multicore/open-amp/porting/env/freertos/rpmsg_porting.c.obj
 .rodata.vTaskStartScheduler.str1.1
                0x000000001fffca4c        0x5 CMakeFiles/rpmsg_pingpong_freertos_example.dir/home/abhishek/udoo/udoo-neo_custom_linux/m4/FreeRTOS_BSP_1.0.1_iMX6SX/rtos/FreeRTOS/Source/tasks.c.obj
 .rodata.CSWTCH.7
                0x000000001fffca51        0x6 CMakeFiles/rpmsg_pingpong_freertos_example.dir/home/abhishek/udoo/udoo-neo_custom_linux/m4/FreeRTOS_BSP_1.0.1_iMX6SX/platform/drivers/src/uart_imx.c.obj
 .rodata.UART_Init.str1.1
                0x000000001fffca57       0x72 CMakeFiles/rpmsg_pingpong_freertos_example.dir/home/abhishek/udoo/udoo-neo_custom_linux/m4/FreeRTOS_BSP_1.0.1_iMX6SX/platform/drivers/src/uart_imx.c.obj
 .rodata.__func__.8944
                0x000000001fffcac9        0xa CMakeFiles/rpmsg_pingpong_freertos_example.dir/home/abhishek/udoo/udoo-neo_custom_linux/m4/FreeRTOS_BSP_1.0.1_iMX6SX/platform/drivers/src/uart_imx.c.obj
 .rodata.MU_TryReceiveMsg.str1.1
                0x000000001fffcad3       0x17 CMakeFiles/rpmsg_pingpong_freertos_example.dir/home/abhishek/udoo/udoo-neo_custom_linux/m4/FreeRTOS_BSP_1.0.1_iMX6SX/platform/drivers/src/mu_imx.c.obj
 .rodata.MU_TrySendMsg.str1.1
                0x000000001fffcaea       0x7c CMakeFiles/rpmsg_pingpong_freertos_example.dir/home/abhishek/udoo/udoo-neo_custom_linux/m4/FreeRTOS_BSP_1.0.1_iMX6SX/platform/drivers/src/mu_imx.c.obj
 .rodata.__func__.8819
                0x000000001fffcb66        0xb CMakeFiles/rpmsg_pingpong_freertos_example.dir/home/abhishek/udoo/udoo-neo_custom_linux/m4/FreeRTOS_BSP_1.0.1_iMX6SX/platform/drivers/src/mu_imx.c.obj
 .rodata.__func__.8829
                0x000000001fffcb71       0x11 CMakeFiles/rpmsg_pingpong_freertos_example.dir/home/abhishek/udoo/udoo-neo_custom_linux/m4/FreeRTOS_BSP_1.0.1_iMX6SX/platform/drivers/src/mu_imx.c.obj
 .rodata.__assert_func.str1.1
                0x000000001fffcb82       0x3c /home/abhishek/udoo/udoo-neo_custom_linux/m4/gcc-arm-none-eabi-7-2018-q2-update-linux/gcc-arm-none-eabi-7-2018-q2-update/bin/../lib/gcc/arm-none-eabi/7.3.1/../../../../arm-none-eabi/lib/thumb/v7e-m/fpv4-sp/hard/libc_nano.a(lib_a-assert.o)
                                         0x3d (size before relaxing)
 *fill*         0x000000001fffcbbe        0x2 
 .rodata._global_impure_ptr
                0x000000001fffcbc0        0x4 /home/abhishek/udoo/udoo-neo_custom_linux/m4/gcc-arm-none-eabi-7-2018-q2-update-linux/gcc-arm-none-eabi-7-2018-q2-update/bin/../lib/gcc/arm-none-eabi/7.3.1/../../../../arm-none-eabi/lib/thumb/v7e-m/fpv4-sp/hard/libc_nano.a(lib_a-impure.o)
                0x000000001fffcbc0                _global_impure_ptr
 .rodata._vfprintf_r.str1.1
                0x000000001fffcbc4       0x11 /home/abhishek/udoo/udoo-neo_custom_linux/m4/gcc-arm-none-eabi-7-2018-q2-update-linux/gcc-arm-none-eabi-7-2018-q2-update/bin/../lib/gcc/arm-none-eabi/7.3.1/../../../../arm-none-eabi/lib/thumb/v7e-m/fpv4-sp/hard/libc_nano.a(lib_a-nano-vfprintf.o)
 .rodata._printf_i.str1.1
                0x000000001fffcbd5       0x22 /home/abhishek/udoo/udoo-neo_custom_linux/m4/gcc-arm-none-eabi-7-2018-q2-update-linux/gcc-arm-none-eabi-7-2018-q2-update/bin/../lib/gcc/arm-none-eabi/7.3.1/../../../../arm-none-eabi/lib/thumb/v7e-m/fpv4-sp/hard/libc_nano.a(lib_a-nano-vfprintf_i.o)
 *fill*         0x000000001fffcbf7        0x1 
 .rodata.__sf_fake_stderr
                0x000000001fffcbf8       0x20 /home/abhishek/udoo/udoo-neo_custom_linux/m4/gcc-arm-none-eabi-7-2018-q2-update-linux/gcc-arm-none-eabi-7-2018-q2-update/bin/../lib/gcc/arm-none-eabi/7.3.1/../../../../arm-none-eabi/lib/thumb/v7e-m/fpv4-sp/hard/libc_nano.a(lib_a-findfp.o)
                0x000000001fffcbf8                __sf_fake_stderr
 .rodata.__sf_fake_stdin
                0x000000001fffcc18       0x20 /home/abhishek/udoo/udoo-neo_custom_linux/m4/gcc-arm-none-eabi-7-2018-q2-update-linux/gcc-arm-none-eabi-7-2018-q2-update/bin/../lib/gcc/arm-none-eabi/7.3.1/../../../../arm-none-eabi/lib/thumb/v7e-m/fpv4-sp/hard/libc_nano.a(lib_a-findfp.o)
                0x000000001fffcc18                __sf_fake_stdin
 .rodata.__sf_fake_stdout
                0x000000001fffcc38       0x20 /home/abhishek/udoo/udoo-neo_custom_linux/m4/gcc-arm-none-eabi-7-2018-q2-update-linux/gcc-arm-none-eabi-7-2018-q2-update/bin/../lib/gcc/arm-none-eabi/7.3.1/../../../../arm-none-eabi/lib/thumb/v7e-m/fpv4-sp/hard/libc_nano.a(lib_a-findfp.o)
                0x000000001fffcc38                __sf_fake_stdout
 *(.glue_7)
 .glue_7        0x000000001fffcc58        0x0 linker stubs
 *(.glue_7t)
 .glue_7t       0x000000001fffcc58        0x0 linker stubs
 *(.eh_frame)
 .eh_frame      0x000000001fffcc58        0x0 /home/abhishek/udoo/udoo-neo_custom_linux/m4/gcc-arm-none-eabi-7-2018-q2-update-linux/gcc-arm-none-eabi-7-2018-q2-update/bin/../lib/gcc/arm-none-eabi/7.3.1/thumb/v7e-m/fpv4-sp/hard/crtbegin.o
 *(.init)
 .init          0x000000001fffcc58        0x4 /home/abhishek/udoo/udoo-neo_custom_linux/m4/gcc-arm-none-eabi-7-2018-q2-update-linux/gcc-arm-none-eabi-7-2018-q2-update/bin/../lib/gcc/arm-none-eabi/7.3.1/thumb/v7e-m/fpv4-sp/hard/crti.o
                0x000000001fffcc58                _init
 .init          0x000000001fffcc5c        0x8 /home/abhishek/udoo/udoo-neo_custom_linux/m4/gcc-arm-none-eabi-7-2018-q2-update-linux/gcc-arm-none-eabi-7-2018-q2-update/bin/../lib/gcc/arm-none-eabi/7.3.1/thumb/v7e-m/fpv4-sp/hard/crtn.o
 *(.fini)
 .fini          0x000000001fffcc64        0x4 /home/abhishek/udoo/udoo-neo_custom_linux/m4/gcc-arm-none-eabi-7-2018-q2-update-linux/gcc-arm-none-eabi-7-2018-q2-update/bin/../lib/gcc/arm-none-eabi/7.3.1/thumb/v7e-m/fpv4-sp/hard/crti.o
                0x000000001fffcc64                _fini
 .fini          0x000000001fffcc68        0x8 /home/abhishek/udoo/udoo-neo_custom_linux/m4/gcc-arm-none-eabi-7-2018-q2-update-linux/gcc-arm-none-eabi-7-2018-q2-update/bin/../lib/gcc/arm-none-eabi/7.3.1/thumb/v7e-m/fpv4-sp/hard/crtn.o
                0x000000001fffcc70                . = ALIGN (0x4)

.vfp11_veneer   0x000000001fffcc70        0x0
 .vfp11_veneer  0x000000001fffcc70        0x0 linker stubs

.v4_bx          0x000000001fffcc70        0x0
 .v4_bx         0x000000001fffcc70        0x0 linker stubs

.iplt           0x000000001fffcc70        0x0
 .iplt          0x000000001fffcc70        0x0 /home/abhishek/udoo/udoo-neo_custom_linux/m4/gcc-arm-none-eabi-7-2018-q2-update-linux/gcc-arm-none-eabi-7-2018-q2-update/bin/../lib/gcc/arm-none-eabi/7.3.1/thumb/v7e-m/fpv4-sp/hard/crtbegin.o

.ARM.extab
 *(.ARM.extab* .gnu.linkonce.armextab.*)

.ARM            0x000000001fffcc70        0x8
                0x000000001fffcc70                __exidx_start = .
 *(.ARM.exidx*)
 .ARM.exidx     0x000000001fffcc70        0x8 /home/abhishek/udoo/udoo-neo_custom_linux/m4/gcc-arm-none-eabi-7-2018-q2-update-linux/gcc-arm-none-eabi-7-2018-q2-update/bin/../lib/gcc/arm-none-eabi/7.3.1/../../../../arm-none-eabi/lib/thumb/v7e-m/fpv4-sp/hard/crt0.o
                0x000000001fffcc78                __exidx_end = .

.rel.dyn        0x000000001fffcc78        0x0
 .rel.iplt      0x000000001fffcc78        0x0 /home/abhishek/udoo/udoo-neo_custom_linux/m4/gcc-arm-none-eabi-7-2018-q2-update-linux/gcc-arm-none-eabi-7-2018-q2-update/bin/../lib/gcc/arm-none-eabi/7.3.1/thumb/v7e-m/fpv4-sp/hard/crtbegin.o

.ctors          0x000000001fffcc78        0x0
                0x000000001fffcc78                __CTOR_LIST__ = .
 *crtbegin.o(.ctors)
 *crtbegin?.o(.ctors)
 *(EXCLUDE_FILE(*crtend.o *crtend?.o) .ctors)
 *(SORT_BY_NAME(.ctors.*))
 *(.ctors)
                0x000000001fffcc78                __CTOR_END__ = .

.dtors          0x000000001fffcc78        0x0
                0x000000001fffcc78                __DTOR_LIST__ = .
 *crtbegin.o(.dtors)
 *crtbegin?.o(.dtors)
 *(EXCLUDE_FILE(*crtend.o *crtend?.o) .dtors)
 *(SORT_BY_NAME(.dtors.*))
 *(.dtors)
                0x000000001fffcc78                __DTOR_END__ = .

.preinit_array  0x000000001fffcc78        0x0
                0x000000001fffcc78                PROVIDE (__preinit_array_start = .)
 *(.preinit_array*)
                0x000000001fffcc78                PROVIDE (__preinit_array_end = .)

.init_array     0x000000001fffcc78        0x4
                0x000000001fffcc78                PROVIDE (__init_array_start = .)
 *(SORT_BY_NAME(.init_array.*))
 *(.init_array*)
 .init_array    0x000000001fffcc78        0x4 /home/abhishek/udoo/udoo-neo_custom_linux/m4/gcc-arm-none-eabi-7-2018-q2-update-linux/gcc-arm-none-eabi-7-2018-q2-update/bin/../lib/gcc/arm-none-eabi/7.3.1/thumb/v7e-m/fpv4-sp/hard/crtbegin.o
                0x000000001fffcc7c                PROVIDE (__init_array_end = .)

.fini_array     0x000000001fffcc7c        0x4
                [!provide]                        PROVIDE (__fini_array_start = .)
 *(SORT_BY_NAME(.fini_array.*))
 *(.fini_array*)
 .fini_array    0x000000001fffcc7c        0x4 /home/abhishek/udoo/udoo-neo_custom_linux/m4/gcc-arm-none-eabi-7-2018-q2-update-linux/gcc-arm-none-eabi-7-2018-q2-update/bin/../lib/gcc/arm-none-eabi/7.3.1/thumb/v7e-m/fpv4-sp/hard/crtbegin.o
                [!provide]                        PROVIDE (__fini_array_end = .)
                0x000000001fffcc80                __etext = .
                0x000000001fffcc80                __DATA_ROM = .

.data           0x0000000020000000      0x1d0 load address 0x000000001fffcc80
                0x0000000020000000                . = ALIGN (0x4)
                0x0000000020000000                __DATA_RAM = .
                0x0000000020000000                __data_start__ = .
 *(.data)
 *(.data*)
 .data.uxCriticalNesting
                0x0000000020000000        0x4 CMakeFiles/rpmsg_pingpong_freertos_example.dir/home/abhishek/udoo/udoo-neo_custom_linux/m4/FreeRTOS_BSP_1.0.1_iMX6SX/rtos/FreeRTOS/Source/portable/GCC/ARM_CM4F/port.c.obj
 .data.xFreeBytesRemaining
                0x0000000020000004        0x4 CMakeFiles/rpmsg_pingpong_freertos_example.dir/home/abhishek/udoo/udoo-neo_custom_linux/m4/FreeRTOS_BSP_1.0.1_iMX6SX/rtos/FreeRTOS/Source/portable/MemMang/heap_2.c.obj
 .data.proc_ops
                0x0000000020000008       0x1c CMakeFiles/rpmsg_pingpong_freertos_example.dir/home/abhishek/udoo/udoo-neo_custom_linux/m4/FreeRTOS_BSP_1.0.1_iMX6SX/middleware/multicore/open-amp/porting/imx6sx_m4/platform.c.obj
                0x0000000020000008                proc_ops
 .data.proc_table
                0x0000000020000024      0x120 CMakeFiles/rpmsg_pingpong_freertos_example.dir/home/abhishek/udoo/udoo-neo_custom_linux/m4/FreeRTOS_BSP_1.0.1_iMX6SX/middleware/multicore/open-amp/porting/imx6sx_m4/platform_info.c.obj
                0x0000000020000024                proc_table
 .data.rpmsg_rdev_config_ops
                0x0000000020000144       0x24 CMakeFiles/rpmsg_pingpong_freertos_example.dir/home/abhishek/udoo/udoo-neo_custom_linux/m4/FreeRTOS_BSP_1.0.1_iMX6SX/middleware/multicore/open-amp/rpmsg/remote_device.c.obj
                0x0000000020000144                rpmsg_rdev_config_ops
 .data.xNextTaskUnblockTime
                0x0000000020000168        0x4 CMakeFiles/rpmsg_pingpong_freertos_example.dir/home/abhishek/udoo/udoo-neo_custom_linux/m4/FreeRTOS_BSP_1.0.1_iMX6SX/rtos/FreeRTOS/Source/tasks.c.obj
 .data._impure_ptr
                0x000000002000016c        0x4 /home/abhishek/udoo/udoo-neo_custom_linux/m4/gcc-arm-none-eabi-7-2018-q2-update-linux/gcc-arm-none-eabi-7-2018-q2-update/bin/../lib/gcc/arm-none-eabi/7.3.1/../../../../arm-none-eabi/lib/thumb/v7e-m/fpv4-sp/hard/libc_nano.a(lib_a-impure.o)
                0x000000002000016c                _impure_ptr
 .data.impure_data
                0x0000000020000170       0x60 /home/abhishek/udoo/udoo-neo_custom_linux/m4/gcc-arm-none-eabi-7-2018-q2-update-linux/gcc-arm-none-eabi-7-2018-q2-update/bin/../lib/gcc/arm-none-eabi/7.3.1/../../../../arm-none-eabi/lib/thumb/v7e-m/fpv4-sp/hard/libc_nano.a(lib_a-impure.o)
 *(.jcr*)
                0x00000000200001d0                . = ALIGN (0x4)
                0x00000000200001d0                __data_end__ = .
                0x000000001fffce50                __DATA_END = (__DATA_ROM + (__data_end__ - __data_start__))
                0x0000000020000000                text_end = (ORIGIN (m_text) + LENGTH (m_text))
                0x0000000000000001                ASSERT ((__DATA_END <= text_end), region m_text overflowed with text and data)

.igot.plt       0x00000000200001d0        0x0 load address 0x000000001fffce50
 .igot.plt      0x00000000200001d0        0x0 /home/abhishek/udoo/udoo-neo_custom_linux/m4/gcc-arm-none-eabi-7-2018-q2-update-linux/gcc-arm-none-eabi-7-2018-q2-update/bin/../lib/gcc/arm-none-eabi/7.3.1/thumb/v7e-m/fpv4-sp/hard/crtbegin.o

.bss            0x00000000200001d0     0x51f0 load address 0x000000001fffce50
                0x00000000200001d0                . = ALIGN (0x4)
                0x00000000200001d0                __START_BSS = .
                0x00000000200001d0                __bss_start__ = .
 *(.bss)
 .bss           0x00000000200001d0       0x1c /home/abhishek/udoo/udoo-neo_custom_linux/m4/gcc-arm-none-eabi-7-2018-q2-update-linux/gcc-arm-none-eabi-7-2018-q2-update/bin/../lib/gcc/arm-none-eabi/7.3.1/thumb/v7e-m/fpv4-sp/hard/crtbegin.o
 *(.bss*)
 .bss.ucMaxSysCallPriority
                0x00000000200001ec        0x1 CMakeFiles/rpmsg_pingpong_freertos_example.dir/home/abhishek/udoo/udoo-neo_custom_linux/m4/FreeRTOS_BSP_1.0.1_iMX6SX/rtos/FreeRTOS/Source/portable/GCC/ARM_CM4F/port.c.obj
 *fill*         0x00000000200001ed        0x3 
 .bss.ulMaxPRIGROUPValue
                0x00000000200001f0        0x4 CMakeFiles/rpmsg_pingpong_freertos_example.dir/home/abhishek/udoo/udoo-neo_custom_linux/m4/FreeRTOS_BSP_1.0.1_iMX6SX/rtos/FreeRTOS/Source/portable/GCC/ARM_CM4F/port.c.obj
 .bss.ucHeap    0x00000000200001f4     0x5000 CMakeFiles/rpmsg_pingpong_freertos_example.dir/home/abhishek/udoo/udoo-neo_custom_linux/m4/FreeRTOS_BSP_1.0.1_iMX6SX/rtos/FreeRTOS/Source/portable/MemMang/heap_2.c.obj
 .bss.xEnd      0x00000000200051f4        0x8 CMakeFiles/rpmsg_pingpong_freertos_example.dir/home/abhishek/udoo/udoo-neo_custom_linux/m4/FreeRTOS_BSP_1.0.1_iMX6SX/rtos/FreeRTOS/Source/portable/MemMang/heap_2.c.obj
 .bss.xHeapHasBeenInitialised.5783
                0x00000000200051fc        0x4 CMakeFiles/rpmsg_pingpong_freertos_example.dir/home/abhishek/udoo/udoo-neo_custom_linux/m4/FreeRTOS_BSP_1.0.1_iMX6SX/rtos/FreeRTOS/Source/portable/MemMang/heap_2.c.obj
 .bss.xStart    0x0000000020005200        0x8 CMakeFiles/rpmsg_pingpong_freertos_example.dir/home/abhishek/udoo/udoo-neo_custom_linux/m4/FreeRTOS_BSP_1.0.1_iMX6SX/rtos/FreeRTOS/Source/portable/MemMang/heap_2.c.obj
 .bss.callback_sync
                0x0000000020005208        0x4 CMakeFiles/rpmsg_pingpong_freertos_example.dir/home/abhishek/udoo/udoo-neo_custom_linux/m4/FreeRTOS_BSP_1.0.1_iMX6SX/middleware/multicore/open-amp/rpmsg/rpmsg_rtos.c.obj
 .bss.default_chnl
                0x000000002000520c        0x4 CMakeFiles/rpmsg_pingpong_freertos_example.dir/home/abhishek/udoo/udoo-neo_custom_linux/m4/FreeRTOS_BSP_1.0.1_iMX6SX/middleware/multicore/open-amp/rpmsg/rpmsg_rtos.c.obj
 .bss.default_q
                0x0000000020005210        0x4 CMakeFiles/rpmsg_pingpong_freertos_example.dir/home/abhishek/udoo/udoo-neo_custom_linux/m4/FreeRTOS_BSP_1.0.1_iMX6SX/middleware/multicore/open-amp/rpmsg/rpmsg_rtos.c.obj
 .bss.rpmsg_queue_size
                0x0000000020005214        0x4 CMakeFiles/rpmsg_pingpong_freertos_example.dir/home/abhishek/udoo/udoo-neo_custom_linux/m4/FreeRTOS_BSP_1.0.1_iMX6SX/middleware/multicore/open-amp/rpmsg/rpmsg_rtos.c.obj
 .bss.disable_counter_all
                0x0000000020005218        0x4 CMakeFiles/rpmsg_pingpong_freertos_example.dir/home/abhishek/udoo/udoo-neo_custom_linux/m4/FreeRTOS_BSP_1.0.1_iMX6SX/middleware/multicore/open-amp/porting/imx6sx_m4/platform.c.obj
 .bss.disable_counters
                0x000000002000521c        0x8 CMakeFiles/rpmsg_pingpong_freertos_example.dir/home/abhishek/udoo/udoo-neo_custom_linux/m4/FreeRTOS_BSP_1.0.1_iMX6SX/middleware/multicore/open-amp/porting/imx6sx_m4/platform.c.obj
 .bss.procs     0x0000000020005224        0x4 CMakeFiles/rpmsg_pingpong_freertos_example.dir/home/abhishek/udoo/udoo-neo_custom_linux/m4/FreeRTOS_BSP_1.0.1_iMX6SX/middleware/multicore/open-amp/common/hil/hil.c.obj
                0x0000000020005224                procs
 .bss.env_init_counter
                0x0000000020005228        0x4 CMakeFiles/rpmsg_pingpong_freertos_example.dir/home/abhishek/udoo/udoo-neo_custom_linux/m4/FreeRTOS_BSP_1.0.1_iMX6SX/middleware/multicore/open-amp/porting/env/freertos/rpmsg_porting.c.obj
 .bss.isr_table
                0x000000002000522c       0x50 CMakeFiles/rpmsg_pingpong_freertos_example.dir/home/abhishek/udoo/udoo-neo_custom_linux/m4/FreeRTOS_BSP_1.0.1_iMX6SX/middleware/multicore/open-amp/porting/env/freertos/rpmsg_porting.c.obj
 .bss.xQueueRegistry
                0x000000002000527c       0x40 CMakeFiles/rpmsg_pingpong_freertos_example.dir/home/abhishek/udoo/udoo-neo_custom_linux/m4/FreeRTOS_BSP_1.0.1_iMX6SX/rtos/FreeRTOS/Source/queue.c.obj
                0x000000002000527c                xQueueRegistry
 .bss.pxCurrentTCB
                0x00000000200052bc        0x4 CMakeFiles/rpmsg_pingpong_freertos_example.dir/home/abhishek/udoo/udoo-neo_custom_linux/m4/FreeRTOS_BSP_1.0.1_iMX6SX/rtos/FreeRTOS/Source/tasks.c.obj
                0x00000000200052bc                pxCurrentTCB
 .bss.pxDelayedTaskList
                0x00000000200052c0        0x4 CMakeFiles/rpmsg_pingpong_freertos_example.dir/home/abhishek/udoo/udoo-neo_custom_linux/m4/FreeRTOS_BSP_1.0.1_iMX6SX/rtos/FreeRTOS/Source/tasks.c.obj
 .bss.pxOverflowDelayedTaskList
                0x00000000200052c4        0x4 CMakeFiles/rpmsg_pingpong_freertos_example.dir/home/abhishek/udoo/udoo-neo_custom_linux/m4/FreeRTOS_BSP_1.0.1_iMX6SX/rtos/FreeRTOS/Source/tasks.c.obj
 .bss.pxReadyTasksLists
                0x00000000200052c8       0x64 CMakeFiles/rpmsg_pingpong_freertos_example.dir/home/abhishek/udoo/udoo-neo_custom_linux/m4/FreeRTOS_BSP_1.0.1_iMX6SX/rtos/FreeRTOS/Source/tasks.c.obj
 .bss.uxCurrentNumberOfTasks
                0x000000002000532c        0x4 CMakeFiles/rpmsg_pingpong_freertos_example.dir/home/abhishek/udoo/udoo-neo_custom_linux/m4/FreeRTOS_BSP_1.0.1_iMX6SX/rtos/FreeRTOS/Source/tasks.c.obj
 .bss.uxPendedTicks
                0x0000000020005330        0x4 CMakeFiles/rpmsg_pingpong_freertos_example.dir/home/abhishek/udoo/udoo-neo_custom_linux/m4/FreeRTOS_BSP_1.0.1_iMX6SX/rtos/FreeRTOS/Source/tasks.c.obj
 .bss.uxSchedulerSuspended
                0x0000000020005334        0x4 CMakeFiles/rpmsg_pingpong_freertos_example.dir/home/abhishek/udoo/udoo-neo_custom_linux/m4/FreeRTOS_BSP_1.0.1_iMX6SX/rtos/FreeRTOS/Source/tasks.c.obj
 .bss.uxTaskNumber
                0x0000000020005338        0x4 CMakeFiles/rpmsg_pingpong_freertos_example.dir/home/abhishek/udoo/udoo-neo_custom_linux/m4/FreeRTOS_BSP_1.0.1_iMX6SX/rtos/FreeRTOS/Source/tasks.c.obj
 .bss.uxTopReadyPriority
                0x000000002000533c        0x4 CMakeFiles/rpmsg_pingpong_freertos_example.dir/home/abhishek/udoo/udoo-neo_custom_linux/m4/FreeRTOS_BSP_1.0.1_iMX6SX/rtos/FreeRTOS/Source/tasks.c.obj
 .bss.xDelayedTaskList1
                0x0000000020005340       0x14 CMakeFiles/rpmsg_pingpong_freertos_example.dir/home/abhishek/udoo/udoo-neo_custom_linux/m4/FreeRTOS_BSP_1.0.1_iMX6SX/rtos/FreeRTOS/Source/tasks.c.obj
 .bss.xDelayedTaskList2
                0x0000000020005354       0x14 CMakeFiles/rpmsg_pingpong_freertos_example.dir/home/abhishek/udoo/udoo-neo_custom_linux/m4/FreeRTOS_BSP_1.0.1_iMX6SX/rtos/FreeRTOS/Source/tasks.c.obj
 .bss.xNumOfOverflows
                0x0000000020005368        0x4 CMakeFiles/rpmsg_pingpong_freertos_example.dir/home/abhishek/udoo/udoo-neo_custom_linux/m4/FreeRTOS_BSP_1.0.1_iMX6SX/rtos/FreeRTOS/Source/tasks.c.obj
 .bss.xPendingReadyList
                0x000000002000536c       0x14 CMakeFiles/rpmsg_pingpong_freertos_example.dir/home/abhishek/udoo/udoo-neo_custom_linux/m4/FreeRTOS_BSP_1.0.1_iMX6SX/rtos/FreeRTOS/Source/tasks.c.obj
 .bss.xSchedulerRunning
                0x0000000020005380        0x4 CMakeFiles/rpmsg_pingpong_freertos_example.dir/home/abhishek/udoo/udoo-neo_custom_linux/m4/FreeRTOS_BSP_1.0.1_iMX6SX/rtos/FreeRTOS/Source/tasks.c.obj
 .bss.xSuspendedTaskList
                0x0000000020005384       0x14 CMakeFiles/rpmsg_pingpong_freertos_example.dir/home/abhishek/udoo/udoo-neo_custom_linux/m4/FreeRTOS_BSP_1.0.1_iMX6SX/rtos/FreeRTOS/Source/tasks.c.obj
 .bss.xTickCount
                0x0000000020005398        0x4 CMakeFiles/rpmsg_pingpong_freertos_example.dir/home/abhishek/udoo/udoo-neo_custom_linux/m4/FreeRTOS_BSP_1.0.1_iMX6SX/rtos/FreeRTOS/Source/tasks.c.obj
 .bss.xYieldPending
                0x000000002000539c        0x4 CMakeFiles/rpmsg_pingpong_freertos_example.dir/home/abhishek/udoo/udoo-neo_custom_linux/m4/FreeRTOS_BSP_1.0.1_iMX6SX/rtos/FreeRTOS/Source/tasks.c.obj
 .bss.s_debugConsole
                0x00000000200053a0       0x10 CMakeFiles/rpmsg_pingpong_freertos_example.dir/home/abhishek/udoo/udoo-neo_custom_linux/m4/FreeRTOS_BSP_1.0.1_iMX6SX/platform/utilities/src/debug_console_imx.c.obj
 .bss.__malloc_free_list
                0x00000000200053b0        0x4 /home/abhishek/udoo/udoo-neo_custom_linux/m4/gcc-arm-none-eabi-7-2018-q2-update-linux/gcc-arm-none-eabi-7-2018-q2-update/bin/../lib/gcc/arm-none-eabi/7.3.1/../../../../arm-none-eabi/lib/thumb/v7e-m/fpv4-sp/hard/libc_nano.a(lib_a-nano-mallocr.o)
                0x00000000200053b0                __malloc_free_list
 .bss.__malloc_sbrk_start
                0x00000000200053b4        0x4 /home/abhishek/udoo/udoo-neo_custom_linux/m4/gcc-arm-none-eabi-7-2018-q2-update-linux/gcc-arm-none-eabi-7-2018-q2-update/bin/../lib/gcc/arm-none-eabi/7.3.1/../../../../arm-none-eabi/lib/thumb/v7e-m/fpv4-sp/hard/libc_nano.a(lib_a-nano-mallocr.o)
                0x00000000200053b4                __malloc_sbrk_start
 .bss.heap_end.5377
                0x00000000200053b8        0x4 /home/abhishek/udoo/udoo-neo_custom_linux/m4/gcc-arm-none-eabi-7-2018-q2-update-linux/gcc-arm-none-eabi-7-2018-q2-update/bin/../lib/gcc/arm-none-eabi/7.3.1/../../../../arm-none-eabi/lib/thumb/v7e-m/fpv4-sp/hard/libnosys.a(sbrk.o)
 *(COMMON)
 COMMON         0x00000000200053bc        0x4 /home/abhishek/udoo/udoo-neo_custom_linux/m4/gcc-arm-none-eabi-7-2018-q2-update-linux/gcc-arm-none-eabi-7-2018-q2-update/bin/../lib/gcc/arm-none-eabi/7.3.1/../../../../arm-none-eabi/lib/thumb/v7e-m/fpv4-sp/hard/libc_nano.a(lib_a-reent.o)
                0x00000000200053bc                errno
                0x00000000200053c0                . = ALIGN (0x4)
                0x00000000200053c0                __bss_end__ = .
                0x00000000200053c0                __END_BSS = .

.heap           0x00000000200053c0      0x400 load address 0x0000000020002040
                0x00000000200053c0                . = ALIGN (0x8)
                0x00000000200053c0                __end__ = .
                0x00000000200053c0                PROVIDE (end = .)
                0x00000000200053c0                __HeapBase = .
                0x00000000200057c0                . = (. + HEAP_SIZE)
 *fill*         0x00000000200053c0      0x400 
                0x00000000200057c0                __HeapLimit = .

.stack          0x00000000200057c0      0x400 load address 0x0000000020002440
                0x00000000200057c0                . = ALIGN (0x8)
                0x0000000020005bc0                . = (. + STACK_SIZE)
 *fill*         0x00000000200057c0      0x400 
                0x0000000020008000                __StackTop = (ORIGIN (m_data) + LENGTH (m_data))
                0x0000000020007c00                __StackLimit = (__StackTop - STACK_SIZE)
                0x0000000020008000                PROVIDE (__stack = __StackTop)

.ARM.attributes
                0x0000000000000000       0x30
 *(.ARM.attributes)
 .ARM.attributes
                0x0000000000000000       0x22 /home/abhishek/udoo/udoo-neo_custom_linux/m4/gcc-arm-none-eabi-7-2018-q2-update-linux/gcc-arm-none-eabi-7-2018-q2-update/bin/../lib/gcc/arm-none-eabi/7.3.1/thumb/v7e-m/fpv4-sp/hard/crti.o
 .ARM.attributes
                0x0000000000000022       0x34 /home/abhishek/udoo/udoo-neo_custom_linux/m4/gcc-arm-none-eabi-7-2018-q2-update-linux/gcc-arm-none-eabi-7-2018-q2-update/bin/../lib/gcc/arm-none-eabi/7.3.1/thumb/v7e-m/fpv4-sp/hard/crtbegin.o
 .ARM.attributes
                0x0000000000000056       0x20 /home/abhishek/udoo/udoo-neo_custom_linux/m4/gcc-arm-none-eabi-7-2018-q2-update-linux/gcc-arm-none-eabi-7-2018-q2-update/bin/../lib/gcc/arm-none-eabi/7.3.1/../../../../arm-none-eabi/lib/thumb/v7e-m/fpv4-sp/hard/crt0.o
 .ARM.attributes
                0x0000000000000076       0x39 CMakeFiles/rpmsg_pingpong_freertos_example.dir/home/abhishek/udoo/udoo-neo_custom_linux/m4/FreeRTOS_BSP_1.0.1_iMX6SX/rtos/FreeRTOS/Source/portable/GCC/ARM_CM4F/port.c.obj
 .ARM.attributes
                0x00000000000000af       0x1f CMakeFiles/rpmsg_pingpong_freertos_example.dir/home/abhishek/udoo/udoo-neo_custom_linux/m4/FreeRTOS_BSP_1.0.1_iMX6SX/platform/devices/MCIMX6X/startup/gcc/startup_MCIMX6X_M4.S.obj
 .ARM.attributes
                0x00000000000000ce       0x39 CMakeFiles/rpmsg_pingpong_freertos_example.dir/home/abhishek/udoo/udoo-neo_custom_linux/m4/FreeRTOS_BSP_1.0.1_iMX6SX/rtos/FreeRTOS/Source/portable/MemMang/heap_2.c.obj
 .ARM.attributes
                0x0000000000000107       0x39 CMakeFiles/rpmsg_pingpong_freertos_example.dir/home/abhishek/udoo/udoo-neo_custom_linux/m4/FreeRTOS_BSP_1.0.1_iMX6SX/examples/imx6sx_sdb_m4/demo_apps/rpmsg/pingpong_freertos/pingpong_freertos.c.obj
 .ARM.attributes
                0x0000000000000140       0x39 CMakeFiles/rpmsg_pingpong_freertos_example.dir/home/abhishek/udoo/udoo-neo_custom_linux/m4/FreeRTOS_BSP_1.0.1_iMX6SX/middleware/multicore/open-amp/rpmsg/rpmsg_rtos.c.obj
 .ARM.attributes
                0x0000000000000179       0x39 CMakeFiles/rpmsg_pingpong_freertos_example.dir/home/abhishek/udoo/udoo-neo_custom_linux/m4/FreeRTOS_BSP_1.0.1_iMX6SX/middleware/multicore/open-amp/porting/imx6sx_m4/platform.c.obj
 .ARM.attributes
                0x00000000000001b2       0x39 CMakeFiles/rpmsg_pingpong_freertos_example.dir/home/abhishek/udoo/udoo-neo_custom_linux/m4/FreeRTOS_BSP_1.0.1_iMX6SX/middleware/multicore/open-amp/porting/imx6sx_m4/platform_info.c.obj
 .ARM.attributes
                0x00000000000001eb       0x39 CMakeFiles/rpmsg_pingpong_freertos_example.dir/home/abhishek/udoo/udoo-neo_custom_linux/m4/FreeRTOS_BSP_1.0.1_iMX6SX/middleware/multicore/open-amp/common/hil/hil.c.obj
 .ARM.attributes
                0x0000000000000224       0x39 CMakeFiles/rpmsg_pingpong_freertos_example.dir/home/abhishek/udoo/udoo-neo_custom_linux/m4/FreeRTOS_BSP_1.0.1_iMX6SX/middleware/multicore/open-amp/common/llist/llist.c.obj
 .ARM.attributes
                0x000000000000025d       0x39 CMakeFiles/rpmsg_pingpong_freertos_example.dir/home/abhishek/udoo/udoo-neo_custom_linux/m4/FreeRTOS_BSP_1.0.1_iMX6SX/middleware/multicore/open-amp/common/shm/sh_mem.c.obj
 .ARM.attributes
                0x0000000000000296       0x39 CMakeFiles/rpmsg_pingpong_freertos_example.dir/home/abhishek/udoo/udoo-neo_custom_linux/m4/FreeRTOS_BSP_1.0.1_iMX6SX/middleware/multicore/open-amp/rpmsg/remote_device.c.obj
 .ARM.attributes
                0x00000000000002cf       0x39 CMakeFiles/rpmsg_pingpong_freertos_example.dir/home/abhishek/udoo/udoo-neo_custom_linux/m4/FreeRTOS_BSP_1.0.1_iMX6SX/middleware/multicore/open-amp/rpmsg/rpmsg.c.obj
 .ARM.attributes
                0x0000000000000308       0x39 CMakeFiles/rpmsg_pingpong_freertos_example.dir/home/abhishek/udoo/udoo-neo_custom_linux/m4/FreeRTOS_BSP_1.0.1_iMX6SX/middleware/multicore/open-amp/rpmsg/rpmsg_ext.c.obj
 .ARM.attributes
                0x0000000000000341       0x39 CMakeFiles/rpmsg_pingpong_freertos_example.dir/home/abhishek/udoo/udoo-neo_custom_linux/m4/FreeRTOS_BSP_1.0.1_iMX6SX/middleware/multicore/open-amp/rpmsg/rpmsg_core.c.obj
 .ARM.attributes
                0x000000000000037a       0x39 CMakeFiles/rpmsg_pingpong_freertos_example.dir/home/abhishek/udoo/udoo-neo_custom_linux/m4/FreeRTOS_BSP_1.0.1_iMX6SX/middleware/multicore/open-amp/virtio/virtqueue.c.obj
 .ARM.attributes
                0x00000000000003b3       0x39 CMakeFiles/rpmsg_pingpong_freertos_example.dir/home/abhishek/udoo/udoo-neo_custom_linux/m4/FreeRTOS_BSP_1.0.1_iMX6SX/middleware/multicore/open-amp/porting/env/freertos/rpmsg_porting.c.obj
 .ARM.attributes
                0x00000000000003ec       0x39 CMakeFiles/rpmsg_pingpong_freertos_example.dir/home/abhishek/udoo/udoo-neo_custom_linux/m4/FreeRTOS_BSP_1.0.1_iMX6SX/rtos/FreeRTOS/Source/list.c.obj
 .ARM.attributes
                0x0000000000000425       0x39 CMakeFiles/rpmsg_pingpong_freertos_example.dir/home/abhishek/udoo/udoo-neo_custom_linux/m4/FreeRTOS_BSP_1.0.1_iMX6SX/rtos/FreeRTOS/Source/queue.c.obj
 .ARM.attributes
                0x000000000000045e       0x39 CMakeFiles/rpmsg_pingpong_freertos_example.dir/home/abhishek/udoo/udoo-neo_custom_linux/m4/FreeRTOS_BSP_1.0.1_iMX6SX/rtos/FreeRTOS/Source/tasks.c.obj
 .ARM.attributes
                0x0000000000000497       0x39 CMakeFiles/rpmsg_pingpong_freertos_example.dir/home/abhishek/udoo/udoo-neo_custom_linux/m4/FreeRTOS_BSP_1.0.1_iMX6SX/platform/utilities/src/debug_console_imx.c.obj
 .ARM.attributes
                0x00000000000004d0       0x39 CMakeFiles/rpmsg_pingpong_freertos_example.dir/home/abhishek/udoo/udoo-neo_custom_linux/m4/FreeRTOS_BSP_1.0.1_iMX6SX/platform/utilities/src/print_scan.c.obj
 .ARM.attributes
                0x0000000000000509       0x39 CMakeFiles/rpmsg_pingpong_freertos_example.dir/home/abhishek/udoo/udoo-neo_custom_linux/m4/FreeRTOS_BSP_1.0.1_iMX6SX/platform/devices/MCIMX6X/startup/system_MCIMX6X_M4.c.obj
 .ARM.attributes
                0x0000000000000542       0x39 CMakeFiles/rpmsg_pingpong_freertos_example.dir/home/abhishek/udoo/udoo-neo_custom_linux/m4/FreeRTOS_BSP_1.0.1_iMX6SX/examples/imx6sx_sdb_m4/pin_mux.c.obj
 .ARM.attributes
                0x000000000000057b       0x39 CMakeFiles/rpmsg_pingpong_freertos_example.dir/home/abhishek/udoo/udoo-neo_custom_linux/m4/FreeRTOS_BSP_1.0.1_iMX6SX/examples/imx6sx_sdb_m4/board.c.obj
 .ARM.attributes
                0x00000000000005b4       0x39 CMakeFiles/rpmsg_pingpong_freertos_example.dir/home/abhishek/udoo/udoo-neo_custom_linux/m4/FreeRTOS_BSP_1.0.1_iMX6SX/examples/imx6sx_sdb_m4/demo_apps/rpmsg/pingpong_freertos/hardware_init.c.obj
 .ARM.attributes
                0x00000000000005ed       0x39 CMakeFiles/rpmsg_pingpong_freertos_example.dir/home/abhishek/udoo/udoo-neo_custom_linux/m4/FreeRTOS_BSP_1.0.1_iMX6SX/platform/drivers/src/uart_imx.c.obj
 .ARM.attributes
                0x0000000000000626       0x39 CMakeFiles/rpmsg_pingpong_freertos_example.dir/home/abhishek/udoo/udoo-neo_custom_linux/m4/FreeRTOS_BSP_1.0.1_iMX6SX/platform/drivers/src/mu_imx.c.obj
 .ARM.attributes
                0x000000000000065f       0x34 /home/abhishek/udoo/udoo-neo_custom_linux/m4/gcc-arm-none-eabi-7-2018-q2-update-linux/gcc-arm-none-eabi-7-2018-q2-update/bin/../lib/gcc/arm-none-eabi/7.3.1/../../../../arm-none-eabi/lib/thumb/v7e-m/fpv4-sp/hard/libc_nano.a(lib_a-assert.o)
 .ARM.attributes
                0x0000000000000693       0x34 /home/abhishek/udoo/udoo-neo_custom_linux/m4/gcc-arm-none-eabi-7-2018-q2-update-linux/gcc-arm-none-eabi-7-2018-q2-update/bin/../lib/gcc/arm-none-eabi/7.3.1/../../../../arm-none-eabi/lib/thumb/v7e-m/fpv4-sp/hard/libc_nano.a(lib_a-exit.o)
 .ARM.attributes
                0x00000000000006c7       0x34 /home/abhishek/udoo/udoo-neo_custom_linux/m4/gcc-arm-none-eabi-7-2018-q2-update-linux/gcc-arm-none-eabi-7-2018-q2-update/bin/../lib/gcc/arm-none-eabi/7.3.1/../../../../arm-none-eabi/lib/thumb/v7e-m/fpv4-sp/hard/libc_nano.a(lib_a-fprintf.o)
 .ARM.attributes
                0x00000000000006fb       0x34 /home/abhishek/udoo/udoo-neo_custom_linux/m4/gcc-arm-none-eabi-7-2018-q2-update-linux/gcc-arm-none-eabi-7-2018-q2-update/bin/../lib/gcc/arm-none-eabi/7.3.1/../../../../arm-none-eabi/lib/thumb/v7e-m/fpv4-sp/hard/libc_nano.a(lib_a-impure.o)
 .ARM.attributes
                0x000000000000072f       0x34 /home/abhishek/udoo/udoo-neo_custom_linux/m4/gcc-arm-none-eabi-7-2018-q2-update-linux/gcc-arm-none-eabi-7-2018-q2-update/bin/../lib/gcc/arm-none-eabi/7.3.1/../../../../arm-none-eabi/lib/thumb/v7e-m/fpv4-sp/hard/libc_nano.a(lib_a-init.o)
 .ARM.attributes
                0x0000000000000763       0x34 /home/abhishek/udoo/udoo-neo_custom_linux/m4/gcc-arm-none-eabi-7-2018-q2-update-linux/gcc-arm-none-eabi-7-2018-q2-update/bin/../lib/gcc/arm-none-eabi/7.3.1/../../../../arm-none-eabi/lib/thumb/v7e-m/fpv4-sp/hard/libc_nano.a(lib_a-memcpy-stub.o)
 .ARM.attributes
                0x0000000000000797       0x34 /home/abhishek/udoo/udoo-neo_custom_linux/m4/gcc-arm-none-eabi-7-2018-q2-update-linux/gcc-arm-none-eabi-7-2018-q2-update/bin/../lib/gcc/arm-none-eabi/7.3.1/../../../../arm-none-eabi/lib/thumb/v7e-m/fpv4-sp/hard/libc_nano.a(lib_a-memset.o)
 .ARM.attributes
                0x00000000000007cb       0x34 /home/abhishek/udoo/udoo-neo_custom_linux/m4/gcc-arm-none-eabi-7-2018-q2-update-linux/gcc-arm-none-eabi-7-2018-q2-update/bin/../lib/gcc/arm-none-eabi/7.3.1/../../../../arm-none-eabi/lib/thumb/v7e-m/fpv4-sp/hard/libc_nano.a(lib_a-nano-vfprintf.o)
 .ARM.attributes
                0x00000000000007ff       0x34 /home/abhishek/udoo/udoo-neo_custom_linux/m4/gcc-arm-none-eabi-7-2018-q2-update-linux/gcc-arm-none-eabi-7-2018-q2-update/bin/../lib/gcc/arm-none-eabi/7.3.1/../../../../arm-none-eabi/lib/thumb/v7e-m/fpv4-sp/hard/libc_nano.a(lib_a-nano-vfprintf_i.o)
 .ARM.attributes
                0x0000000000000833       0x1b /home/abhishek/udoo/udoo-neo_custom_linux/m4/gcc-arm-none-eabi-7-2018-q2-update-linux/gcc-arm-none-eabi-7-2018-q2-update/bin/../lib/gcc/arm-none-eabi/7.3.1/../../../../arm-none-eabi/lib/thumb/v7e-m/fpv4-sp/hard/libc_nano.a(lib_a-strlen.o)
 .ARM.attributes
                0x000000000000084e       0x34 /home/abhishek/udoo/udoo-neo_custom_linux/m4/gcc-arm-none-eabi-7-2018-q2-update-linux/gcc-arm-none-eabi-7-2018-q2-update/bin/../lib/gcc/arm-none-eabi/7.3.1/../../../../arm-none-eabi/lib/thumb/v7e-m/fpv4-sp/hard/libc_nano.a(lib_a-strncmp.o)
 .ARM.attributes
                0x0000000000000882       0x34 /home/abhishek/udoo/udoo-neo_custom_linux/m4/gcc-arm-none-eabi-7-2018-q2-update-linux/gcc-arm-none-eabi-7-2018-q2-update/bin/../lib/gcc/arm-none-eabi/7.3.1/../../../../arm-none-eabi/lib/thumb/v7e-m/fpv4-sp/hard/libc_nano.a(lib_a-strncpy.o)
 .ARM.attributes
                0x00000000000008b6       0x34 /home/abhishek/udoo/udoo-neo_custom_linux/m4/gcc-arm-none-eabi-7-2018-q2-update-linux/gcc-arm-none-eabi-7-2018-q2-update/bin/../lib/gcc/arm-none-eabi/7.3.1/../../../../arm-none-eabi/lib/thumb/v7e-m/fpv4-sp/hard/libc_nano.a(lib_a-wbuf.o)
 .ARM.attributes
                0x00000000000008ea       0x34 /home/abhishek/udoo/udoo-neo_custom_linux/m4/gcc-arm-none-eabi-7-2018-q2-update-linux/gcc-arm-none-eabi-7-2018-q2-update/bin/../lib/gcc/arm-none-eabi/7.3.1/../../../../arm-none-eabi/lib/thumb/v7e-m/fpv4-sp/hard/libc_nano.a(lib_a-wsetup.o)
 .ARM.attributes
                0x000000000000091e       0x34 /home/abhishek/udoo/udoo-neo_custom_linux/m4/gcc-arm-none-eabi-7-2018-q2-update-linux/gcc-arm-none-eabi-7-2018-q2-update/bin/../lib/gcc/arm-none-eabi/7.3.1/../../../../arm-none-eabi/lib/thumb/v7e-m/fpv4-sp/hard/libc_nano.a(lib_a-abort.o)
 .ARM.attributes
                0x0000000000000952       0x34 /home/abhishek/udoo/udoo-neo_custom_linux/m4/gcc-arm-none-eabi-7-2018-q2-update-linux/gcc-arm-none-eabi-7-2018-q2-update/bin/../lib/gcc/arm-none-eabi/7.3.1/../../../../arm-none-eabi/lib/thumb/v7e-m/fpv4-sp/hard/libc_nano.a(lib_a-fflush.o)
 .ARM.attributes
                0x0000000000000986       0x34 /home/abhishek/udoo/udoo-neo_custom_linux/m4/gcc-arm-none-eabi-7-2018-q2-update-linux/gcc-arm-none-eabi-7-2018-q2-update/bin/../lib/gcc/arm-none-eabi/7.3.1/../../../../arm-none-eabi/lib/thumb/v7e-m/fpv4-sp/hard/libc_nano.a(lib_a-findfp.o)
 .ARM.attributes
                0x00000000000009ba       0x34 /home/abhishek/udoo/udoo-neo_custom_linux/m4/gcc-arm-none-eabi-7-2018-q2-update-linux/gcc-arm-none-eabi-7-2018-q2-update/bin/../lib/gcc/arm-none-eabi/7.3.1/../../../../arm-none-eabi/lib/thumb/v7e-m/fpv4-sp/hard/libc_nano.a(lib_a-fwalk.o)
 .ARM.attributes
                0x00000000000009ee       0x34 /home/abhishek/udoo/udoo-neo_custom_linux/m4/gcc-arm-none-eabi-7-2018-q2-update-linux/gcc-arm-none-eabi-7-2018-q2-update/bin/../lib/gcc/arm-none-eabi/7.3.1/../../../../arm-none-eabi/lib/thumb/v7e-m/fpv4-sp/hard/libc_nano.a(lib_a-makebuf.o)
 .ARM.attributes
                0x0000000000000a22       0x20 /home/abhishek/udoo/udoo-neo_custom_linux/m4/gcc-arm-none-eabi-7-2018-q2-update-linux/gcc-arm-none-eabi-7-2018-q2-update/bin/../lib/gcc/arm-none-eabi/7.3.1/../../../../arm-none-eabi/lib/thumb/v7e-m/fpv4-sp/hard/libc_nano.a(lib_a-memchr.o)
 .ARM.attributes
                0x0000000000000a42       0x34 /home/abhishek/udoo/udoo-neo_custom_linux/m4/gcc-arm-none-eabi-7-2018-q2-update-linux/gcc-arm-none-eabi-7-2018-q2-update/bin/../lib/gcc/arm-none-eabi/7.3.1/../../../../arm-none-eabi/lib/thumb/v7e-m/fpv4-sp/hard/libc_nano.a(lib_a-nano-freer.o)
 .ARM.attributes
                0x0000000000000a76       0x34 /home/abhishek/udoo/udoo-neo_custom_linux/m4/gcc-arm-none-eabi-7-2018-q2-update-linux/gcc-arm-none-eabi-7-2018-q2-update/bin/../lib/gcc/arm-none-eabi/7.3.1/../../../../arm-none-eabi/lib/thumb/v7e-m/fpv4-sp/hard/libc_nano.a(lib_a-nano-mallocr.o)
 .ARM.attributes
                0x0000000000000aaa       0x34 /home/abhishek/udoo/udoo-neo_custom_linux/m4/gcc-arm-none-eabi-7-2018-q2-update-linux/gcc-arm-none-eabi-7-2018-q2-update/bin/../lib/gcc/arm-none-eabi/7.3.1/../../../../arm-none-eabi/lib/thumb/v7e-m/fpv4-sp/hard/libc_nano.a(lib_a-sbrkr.o)
 .ARM.attributes
                0x0000000000000ade       0x34 /home/abhishek/udoo/udoo-neo_custom_linux/m4/gcc-arm-none-eabi-7-2018-q2-update-linux/gcc-arm-none-eabi-7-2018-q2-update/bin/../lib/gcc/arm-none-eabi/7.3.1/../../../../arm-none-eabi/lib/thumb/v7e-m/fpv4-sp/hard/libc_nano.a(lib_a-signal.o)
 .ARM.attributes
                0x0000000000000b12       0x34 /home/abhishek/udoo/udoo-neo_custom_linux/m4/gcc-arm-none-eabi-7-2018-q2-update-linux/gcc-arm-none-eabi-7-2018-q2-update/bin/../lib/gcc/arm-none-eabi/7.3.1/../../../../arm-none-eabi/lib/thumb/v7e-m/fpv4-sp/hard/libc_nano.a(lib_a-signalr.o)
 .ARM.attributes
                0x0000000000000b46       0x34 /home/abhishek/udoo/udoo-neo_custom_linux/m4/gcc-arm-none-eabi-7-2018-q2-update-linux/gcc-arm-none-eabi-7-2018-q2-update/bin/../lib/gcc/arm-none-eabi/7.3.1/../../../../arm-none-eabi/lib/thumb/v7e-m/fpv4-sp/hard/libc_nano.a(lib_a-stdio.o)
 .ARM.attributes
                0x0000000000000b7a       0x34 /home/abhishek/udoo/udoo-neo_custom_linux/m4/gcc-arm-none-eabi-7-2018-q2-update-linux/gcc-arm-none-eabi-7-2018-q2-update/bin/../lib/gcc/arm-none-eabi/7.3.1/../../../../arm-none-eabi/lib/thumb/v7e-m/fpv4-sp/hard/libc_nano.a(lib_a-writer.o)
 .ARM.attributes
                0x0000000000000bae       0x34 /home/abhishek/udoo/udoo-neo_custom_linux/m4/gcc-arm-none-eabi-7-2018-q2-update-linux/gcc-arm-none-eabi-7-2018-q2-update/bin/../lib/gcc/arm-none-eabi/7.3.1/../../../../arm-none-eabi/lib/thumb/v7e-m/fpv4-sp/hard/libc_nano.a(lib_a-closer.o)
 .ARM.attributes
                0x0000000000000be2       0x34 /home/abhishek/udoo/udoo-neo_custom_linux/m4/gcc-arm-none-eabi-7-2018-q2-update-linux/gcc-arm-none-eabi-7-2018-q2-update/bin/../lib/gcc/arm-none-eabi/7.3.1/../../../../arm-none-eabi/lib/thumb/v7e-m/fpv4-sp/hard/libc_nano.a(lib_a-fstatr.o)
 .ARM.attributes
                0x0000000000000c16       0x34 /home/abhishek/udoo/udoo-neo_custom_linux/m4/gcc-arm-none-eabi-7-2018-q2-update-linux/gcc-arm-none-eabi-7-2018-q2-update/bin/../lib/gcc/arm-none-eabi/7.3.1/../../../../arm-none-eabi/lib/thumb/v7e-m/fpv4-sp/hard/libc_nano.a(lib_a-isattyr.o)
 .ARM.attributes
                0x0000000000000c4a       0x34 /home/abhishek/udoo/udoo-neo_custom_linux/m4/gcc-arm-none-eabi-7-2018-q2-update-linux/gcc-arm-none-eabi-7-2018-q2-update/bin/../lib/gcc/arm-none-eabi/7.3.1/../../../../arm-none-eabi/lib/thumb/v7e-m/fpv4-sp/hard/libc_nano.a(lib_a-lseekr.o)
 .ARM.attributes
                0x0000000000000c7e       0x34 /home/abhishek/udoo/udoo-neo_custom_linux/m4/gcc-arm-none-eabi-7-2018-q2-update-linux/gcc-arm-none-eabi-7-2018-q2-update/bin/../lib/gcc/arm-none-eabi/7.3.1/../../../../arm-none-eabi/lib/thumb/v7e-m/fpv4-sp/hard/libc_nano.a(lib_a-mlock.o)
 .ARM.attributes
                0x0000000000000cb2       0x34 /home/abhishek/udoo/udoo-neo_custom_linux/m4/gcc-arm-none-eabi-7-2018-q2-update-linux/gcc-arm-none-eabi-7-2018-q2-update/bin/../lib/gcc/arm-none-eabi/7.3.1/../../../../arm-none-eabi/lib/thumb/v7e-m/fpv4-sp/hard/libc_nano.a(lib_a-readr.o)
 .ARM.attributes
                0x0000000000000ce6       0x34 /home/abhishek/udoo/udoo-neo_custom_linux/m4/gcc-arm-none-eabi-7-2018-q2-update-linux/gcc-arm-none-eabi-7-2018-q2-update/bin/../lib/gcc/arm-none-eabi/7.3.1/../../../../arm-none-eabi/lib/thumb/v7e-m/fpv4-sp/hard/libc_nano.a(lib_a-reent.o)
 .ARM.attributes
                0x0000000000000d1a       0x34 /home/abhishek/udoo/udoo-neo_custom_linux/m4/gcc-arm-none-eabi-7-2018-q2-update-linux/gcc-arm-none-eabi-7-2018-q2-update/bin/../lib/gcc/arm-none-eabi/7.3.1/../../../../arm-none-eabi/lib/thumb/v7e-m/fpv4-sp/hard/libnosys.a(close.o)
 .ARM.attributes
                0x0000000000000d4e       0x34 /home/abhishek/udoo/udoo-neo_custom_linux/m4/gcc-arm-none-eabi-7-2018-q2-update-linux/gcc-arm-none-eabi-7-2018-q2-update/bin/../lib/gcc/arm-none-eabi/7.3.1/../../../../arm-none-eabi/lib/thumb/v7e-m/fpv4-sp/hard/libnosys.a(fstat.o)
 .ARM.attributes
                0x0000000000000d82       0x34 /home/abhishek/udoo/udoo-neo_custom_linux/m4/gcc-arm-none-eabi-7-2018-q2-update-linux/gcc-arm-none-eabi-7-2018-q2-update/bin/../lib/gcc/arm-none-eabi/7.3.1/../../../../arm-none-eabi/lib/thumb/v7e-m/fpv4-sp/hard/libnosys.a(getpid.o)
 .ARM.attributes
                0x0000000000000db6       0x34 /home/abhishek/udoo/udoo-neo_custom_linux/m4/gcc-arm-none-eabi-7-2018-q2-update-linux/gcc-arm-none-eabi-7-2018-q2-update/bin/../lib/gcc/arm-none-eabi/7.3.1/../../../../arm-none-eabi/lib/thumb/v7e-m/fpv4-sp/hard/libnosys.a(isatty.o)
 .ARM.attributes
                0x0000000000000dea       0x34 /home/abhishek/udoo/udoo-neo_custom_linux/m4/gcc-arm-none-eabi-7-2018-q2-update-linux/gcc-arm-none-eabi-7-2018-q2-update/bin/../lib/gcc/arm-none-eabi/7.3.1/../../../../arm-none-eabi/lib/thumb/v7e-m/fpv4-sp/hard/libnosys.a(kill.o)
 .ARM.attributes
                0x0000000000000e1e       0x34 /home/abhishek/udoo/udoo-neo_custom_linux/m4/gcc-arm-none-eabi-7-2018-q2-update-linux/gcc-arm-none-eabi-7-2018-q2-update/bin/../lib/gcc/arm-none-eabi/7.3.1/../../../../arm-none-eabi/lib/thumb/v7e-m/fpv4-sp/hard/libnosys.a(lseek.o)
 .ARM.attributes
                0x0000000000000e52       0x34 /home/abhishek/udoo/udoo-neo_custom_linux/m4/gcc-arm-none-eabi-7-2018-q2-update-linux/gcc-arm-none-eabi-7-2018-q2-update/bin/../lib/gcc/arm-none-eabi/7.3.1/../../../../arm-none-eabi/lib/thumb/v7e-m/fpv4-sp/hard/libnosys.a(sbrk.o)
 .ARM.attributes
                0x0000000000000e86       0x34 /home/abhishek/udoo/udoo-neo_custom_linux/m4/gcc-arm-none-eabi-7-2018-q2-update-linux/gcc-arm-none-eabi-7-2018-q2-update/bin/../lib/gcc/arm-none-eabi/7.3.1/../../../../arm-none-eabi/lib/thumb/v7e-m/fpv4-sp/hard/libnosys.a(_exit.o)
 .ARM.attributes
                0x0000000000000eba       0x22 /home/abhishek/udoo/udoo-neo_custom_linux/m4/gcc-arm-none-eabi-7-2018-q2-update-linux/gcc-arm-none-eabi-7-2018-q2-update/bin/../lib/gcc/arm-none-eabi/7.3.1/thumb/v7e-m/fpv4-sp/hard/crtn.o
                0x0000000000000001                ASSERT ((__StackLimit >= __HeapLimit), region m_data overflowed with stack and heap)
OUTPUT(release/rpmsg_pingpong_freertos_example.elf elf32-littlearm)

.comment        0x0000000000000000       0x7f
 .comment       0x0000000000000000       0x7f CMakeFiles/rpmsg_pingpong_freertos_example.dir/home/abhishek/udoo/udoo-neo_custom_linux/m4/FreeRTOS_BSP_1.0.1_iMX6SX/rtos/FreeRTOS/Source/portable/GCC/ARM_CM4F/port.c.obj
                                         0x80 (size before relaxing)
 .comment       0x000000000000007f       0x80 CMakeFiles/rpmsg_pingpong_freertos_example.dir/home/abhishek/udoo/udoo-neo_custom_linux/m4/FreeRTOS_BSP_1.0.1_iMX6SX/rtos/FreeRTOS/Source/portable/MemMang/heap_2.c.obj
 .comment       0x000000000000007f       0x80 CMakeFiles/rpmsg_pingpong_freertos_example.dir/home/abhishek/udoo/udoo-neo_custom_linux/m4/FreeRTOS_BSP_1.0.1_iMX6SX/examples/imx6sx_sdb_m4/demo_apps/rpmsg/pingpong_freertos/pingpong_freertos.c.obj
 .comment       0x000000000000007f       0x80 CMakeFiles/rpmsg_pingpong_freertos_example.dir/home/abhishek/udoo/udoo-neo_custom_linux/m4/FreeRTOS_BSP_1.0.1_iMX6SX/middleware/multicore/open-amp/rpmsg/rpmsg_rtos.c.obj
 .comment       0x000000000000007f       0x80 CMakeFiles/rpmsg_pingpong_freertos_example.dir/home/abhishek/udoo/udoo-neo_custom_linux/m4/FreeRTOS_BSP_1.0.1_iMX6SX/middleware/multicore/open-amp/porting/imx6sx_m4/platform.c.obj
 .comment       0x000000000000007f       0x80 CMakeFiles/rpmsg_pingpong_freertos_example.dir/home/abhishek/udoo/udoo-neo_custom_linux/m4/FreeRTOS_BSP_1.0.1_iMX6SX/middleware/multicore/open-amp/porting/imx6sx_m4/platform_info.c.obj
 .comment       0x000000000000007f       0x80 CMakeFiles/rpmsg_pingpong_freertos_example.dir/home/abhishek/udoo/udoo-neo_custom_linux/m4/FreeRTOS_BSP_1.0.1_iMX6SX/middleware/multicore/open-amp/common/hil/hil.c.obj
 .comment       0x000000000000007f       0x80 CMakeFiles/rpmsg_pingpong_freertos_example.dir/home/abhishek/udoo/udoo-neo_custom_linux/m4/FreeRTOS_BSP_1.0.1_iMX6SX/middleware/multicore/open-amp/common/llist/llist.c.obj
 .comment       0x000000000000007f       0x80 CMakeFiles/rpmsg_pingpong_freertos_example.dir/home/abhishek/udoo/udoo-neo_custom_linux/m4/FreeRTOS_BSP_1.0.1_iMX6SX/middleware/multicore/open-amp/common/shm/sh_mem.c.obj
 .comment       0x000000000000007f       0x80 CMakeFiles/rpmsg_pingpong_freertos_example.dir/home/abhishek/udoo/udoo-neo_custom_linux/m4/FreeRTOS_BSP_1.0.1_iMX6SX/middleware/multicore/open-amp/rpmsg/remote_device.c.obj
 .comment       0x000000000000007f       0x80 CMakeFiles/rpmsg_pingpong_freertos_example.dir/home/abhishek/udoo/udoo-neo_custom_linux/m4/FreeRTOS_BSP_1.0.1_iMX6SX/middleware/multicore/open-amp/rpmsg/rpmsg.c.obj
 .comment       0x000000000000007f       0x80 CMakeFiles/rpmsg_pingpong_freertos_example.dir/home/abhishek/udoo/udoo-neo_custom_linux/m4/FreeRTOS_BSP_1.0.1_iMX6SX/middleware/multicore/open-amp/rpmsg/rpmsg_ext.c.obj
 .comment       0x000000000000007f       0x80 CMakeFiles/rpmsg_pingpong_freertos_example.dir/home/abhishek/udoo/udoo-neo_custom_linux/m4/FreeRTOS_BSP_1.0.1_iMX6SX/middleware/multicore/open-amp/rpmsg/rpmsg_core.c.obj
 .comment       0x000000000000007f       0x80 CMakeFiles/rpmsg_pingpong_freertos_example.dir/home/abhishek/udoo/udoo-neo_custom_linux/m4/FreeRTOS_BSP_1.0.1_iMX6SX/middleware/multicore/open-amp/virtio/virtqueue.c.obj
 .comment       0x000000000000007f       0x80 CMakeFiles/rpmsg_pingpong_freertos_example.dir/home/abhishek/udoo/udoo-neo_custom_linux/m4/FreeRTOS_BSP_1.0.1_iMX6SX/middleware/multicore/open-amp/porting/env/freertos/rpmsg_porting.c.obj
 .comment       0x000000000000007f       0x80 CMakeFiles/rpmsg_pingpong_freertos_example.dir/home/abhishek/udoo/udoo-neo_custom_linux/m4/FreeRTOS_BSP_1.0.1_iMX6SX/rtos/FreeRTOS/Source/list.c.obj
 .comment       0x000000000000007f       0x80 CMakeFiles/rpmsg_pingpong_freertos_example.dir/home/abhishek/udoo/udoo-neo_custom_linux/m4/FreeRTOS_BSP_1.0.1_iMX6SX/rtos/FreeRTOS/Source/queue.c.obj
 .comment       0x000000000000007f       0x80 CMakeFiles/rpmsg_pingpong_freertos_example.dir/home/abhishek/udoo/udoo-neo_custom_linux/m4/FreeRTOS_BSP_1.0.1_iMX6SX/rtos/FreeRTOS/Source/tasks.c.obj
 .comment       0x000000000000007f       0x80 CMakeFiles/rpmsg_pingpong_freertos_example.dir/home/abhishek/udoo/udoo-neo_custom_linux/m4/FreeRTOS_BSP_1.0.1_iMX6SX/platform/utilities/src/debug_console_imx.c.obj
 .comment       0x000000000000007f       0x80 CMakeFiles/rpmsg_pingpong_freertos_example.dir/home/abhishek/udoo/udoo-neo_custom_linux/m4/FreeRTOS_BSP_1.0.1_iMX6SX/platform/utilities/src/print_scan.c.obj
 .comment       0x000000000000007f       0x80 CMakeFiles/rpmsg_pingpong_freertos_example.dir/home/abhishek/udoo/udoo-neo_custom_linux/m4/FreeRTOS_BSP_1.0.1_iMX6SX/platform/devices/MCIMX6X/startup/system_MCIMX6X_M4.c.obj
 .comment       0x000000000000007f       0x80 CMakeFiles/rpmsg_pingpong_freertos_example.dir/home/abhishek/udoo/udoo-neo_custom_linux/m4/FreeRTOS_BSP_1.0.1_iMX6SX/examples/imx6sx_sdb_m4/pin_mux.c.obj
 .comment       0x000000000000007f       0x80 CMakeFiles/rpmsg_pingpong_freertos_example.dir/home/abhishek/udoo/udoo-neo_custom_linux/m4/FreeRTOS_BSP_1.0.1_iMX6SX/examples/imx6sx_sdb_m4/board.c.obj
 .comment       0x000000000000007f       0x80 CMakeFiles/rpmsg_pingpong_freertos_example.dir/home/abhishek/udoo/udoo-neo_custom_linux/m4/FreeRTOS_BSP_1.0.1_iMX6SX/examples/imx6sx_sdb_m4/demo_apps/rpmsg/pingpong_freertos/hardware_init.c.obj
 .comment       0x000000000000007f       0x80 CMakeFiles/rpmsg_pingpong_freertos_example.dir/home/abhishek/udoo/udoo-neo_custom_linux/m4/FreeRTOS_BSP_1.0.1_iMX6SX/platform/drivers/src/uart_imx.c.obj
 .comment       0x000000000000007f       0x80 CMakeFiles/rpmsg_pingpong_freertos_example.dir/home/abhishek/udoo/udoo-neo_custom_linux/m4/FreeRTOS_BSP_1.0.1_iMX6SX/platform/drivers/src/mu_imx.c.obj

.debug_frame    0x0000000000000000      0xa18
 .debug_frame   0x0000000000000000       0x40 /home/abhishek/udoo/udoo-neo_custom_linux/m4/gcc-arm-none-eabi-7-2018-q2-update-linux/gcc-arm-none-eabi-7-2018-q2-update/bin/../lib/gcc/arm-none-eabi/7.3.1/../../../../arm-none-eabi/lib/thumb/v7e-m/fpv4-sp/hard/libc_nano.a(lib_a-assert.o)
 .debug_frame   0x0000000000000040       0x28 /home/abhishek/udoo/udoo-neo_custom_linux/m4/gcc-arm-none-eabi-7-2018-q2-update-linux/gcc-arm-none-eabi-7-2018-q2-update/bin/../lib/gcc/arm-none-eabi/7.3.1/../../../../arm-none-eabi/lib/thumb/v7e-m/fpv4-sp/hard/libc_nano.a(lib_a-exit.o)
 .debug_frame   0x0000000000000068       0x64 /home/abhishek/udoo/udoo-neo_custom_linux/m4/gcc-arm-none-eabi-7-2018-q2-update-linux/gcc-arm-none-eabi-7-2018-q2-update/bin/../lib/gcc/arm-none-eabi/7.3.1/../../../../arm-none-eabi/lib/thumb/v7e-m/fpv4-sp/hard/libc_nano.a(lib_a-fprintf.o)
 .debug_frame   0x00000000000000cc       0x2c /home/abhishek/udoo/udoo-neo_custom_linux/m4/gcc-arm-none-eabi-7-2018-q2-update-linux/gcc-arm-none-eabi-7-2018-q2-update/bin/../lib/gcc/arm-none-eabi/7.3.1/../../../../arm-none-eabi/lib/thumb/v7e-m/fpv4-sp/hard/libc_nano.a(lib_a-init.o)
 .debug_frame   0x00000000000000f8       0x28 /home/abhishek/udoo/udoo-neo_custom_linux/m4/gcc-arm-none-eabi-7-2018-q2-update-linux/gcc-arm-none-eabi-7-2018-q2-update/bin/../lib/gcc/arm-none-eabi/7.3.1/../../../../arm-none-eabi/lib/thumb/v7e-m/fpv4-sp/hard/libc_nano.a(lib_a-memcpy-stub.o)
 .debug_frame   0x0000000000000120       0x20 /home/abhishek/udoo/udoo-neo_custom_linux/m4/gcc-arm-none-eabi-7-2018-q2-update-linux/gcc-arm-none-eabi-7-2018-q2-update/bin/../lib/gcc/arm-none-eabi/7.3.1/../../../../arm-none-eabi/lib/thumb/v7e-m/fpv4-sp/hard/libc_nano.a(lib_a-memset.o)
 .debug_frame   0x0000000000000140       0xac /home/abhishek/udoo/udoo-neo_custom_linux/m4/gcc-arm-none-eabi-7-2018-q2-update-linux/gcc-arm-none-eabi-7-2018-q2-update/bin/../lib/gcc/arm-none-eabi/7.3.1/../../../../arm-none-eabi/lib/thumb/v7e-m/fpv4-sp/hard/libc_nano.a(lib_a-nano-vfprintf.o)
 .debug_frame   0x00000000000001ec       0x60 /home/abhishek/udoo/udoo-neo_custom_linux/m4/gcc-arm-none-eabi-7-2018-q2-update-linux/gcc-arm-none-eabi-7-2018-q2-update/bin/../lib/gcc/arm-none-eabi/7.3.1/../../../../arm-none-eabi/lib/thumb/v7e-m/fpv4-sp/hard/libc_nano.a(lib_a-nano-vfprintf_i.o)
 .debug_frame   0x000000000000024c       0x28 /home/abhishek/udoo/udoo-neo_custom_linux/m4/gcc-arm-none-eabi-7-2018-q2-update-linux/gcc-arm-none-eabi-7-2018-q2-update/bin/../lib/gcc/arm-none-eabi/7.3.1/../../../../arm-none-eabi/lib/thumb/v7e-m/fpv4-sp/hard/libc_nano.a(lib_a-strncmp.o)
 .debug_frame   0x0000000000000274       0x2c /home/abhishek/udoo/udoo-neo_custom_linux/m4/gcc-arm-none-eabi-7-2018-q2-update-linux/gcc-arm-none-eabi-7-2018-q2-update/bin/../lib/gcc/arm-none-eabi/7.3.1/../../../../arm-none-eabi/lib/thumb/v7e-m/fpv4-sp/hard/libc_nano.a(lib_a-strncpy.o)
 .debug_frame   0x00000000000002a0       0x40 /home/abhishek/udoo/udoo-neo_custom_linux/m4/gcc-arm-none-eabi-7-2018-q2-update-linux/gcc-arm-none-eabi-7-2018-q2-update/bin/../lib/gcc/arm-none-eabi/7.3.1/../../../../arm-none-eabi/lib/thumb/v7e-m/fpv4-sp/hard/libc_nano.a(lib_a-wbuf.o)
 .debug_frame   0x00000000000002e0       0x2c /home/abhishek/udoo/udoo-neo_custom_linux/m4/gcc-arm-none-eabi-7-2018-q2-update-linux/gcc-arm-none-eabi-7-2018-q2-update/bin/../lib/gcc/arm-none-eabi/7.3.1/../../../../arm-none-eabi/lib/thumb/v7e-m/fpv4-sp/hard/libc_nano.a(lib_a-wsetup.o)
 .debug_frame   0x000000000000030c       0x28 /home/abhishek/udoo/udoo-neo_custom_linux/m4/gcc-arm-none-eabi-7-2018-q2-update-linux/gcc-arm-none-eabi-7-2018-q2-update/bin/../lib/gcc/arm-none-eabi/7.3.1/../../../../arm-none-eabi/lib/thumb/v7e-m/fpv4-sp/hard/libc_nano.a(lib_a-abort.o)
 .debug_frame   0x0000000000000334       0x68 /home/abhishek/udoo/udoo-neo_custom_linux/m4/gcc-arm-none-eabi-7-2018-q2-update-linux/gcc-arm-none-eabi-7-2018-q2-update/bin/../lib/gcc/arm-none-eabi/7.3.1/../../../../arm-none-eabi/lib/thumb/v7e-m/fpv4-sp/hard/libc_nano.a(lib_a-fflush.o)
 .debug_frame   0x000000000000039c      0x11c /home/abhishek/udoo/udoo-neo_custom_linux/m4/gcc-arm-none-eabi-7-2018-q2-update-linux/gcc-arm-none-eabi-7-2018-q2-update/bin/../lib/gcc/arm-none-eabi/7.3.1/../../../../arm-none-eabi/lib/thumb/v7e-m/fpv4-sp/hard/libc_nano.a(lib_a-findfp.o)
 .debug_frame   0x00000000000004b8       0x54 /home/abhishek/udoo/udoo-neo_custom_linux/m4/gcc-arm-none-eabi-7-2018-q2-update-linux/gcc-arm-none-eabi-7-2018-q2-update/bin/../lib/gcc/arm-none-eabi/7.3.1/../../../../arm-none-eabi/lib/thumb/v7e-m/fpv4-sp/hard/libc_nano.a(lib_a-fwalk.o)
 .debug_frame   0x000000000000050c       0x58 /home/abhishek/udoo/udoo-neo_custom_linux/m4/gcc-arm-none-eabi-7-2018-q2-update-linux/gcc-arm-none-eabi-7-2018-q2-update/bin/../lib/gcc/arm-none-eabi/7.3.1/../../../../arm-none-eabi/lib/thumb/v7e-m/fpv4-sp/hard/libc_nano.a(lib_a-makebuf.o)
 .debug_frame   0x0000000000000564       0x38 /home/abhishek/udoo/udoo-neo_custom_linux/m4/gcc-arm-none-eabi-7-2018-q2-update-linux/gcc-arm-none-eabi-7-2018-q2-update/bin/../lib/gcc/arm-none-eabi/7.3.1/../../../../arm-none-eabi/lib/thumb/v7e-m/fpv4-sp/hard/libc_nano.a(lib_a-nano-freer.o)
 .debug_frame   0x000000000000059c       0x2c /home/abhishek/udoo/udoo-neo_custom_linux/m4/gcc-arm-none-eabi-7-2018-q2-update-linux/gcc-arm-none-eabi-7-2018-q2-update/bin/../lib/gcc/arm-none-eabi/7.3.1/../../../../arm-none-eabi/lib/thumb/v7e-m/fpv4-sp/hard/libc_nano.a(lib_a-nano-mallocr.o)
 .debug_frame   0x00000000000005c8       0x2c /home/abhishek/udoo/udoo-neo_custom_linux/m4/gcc-arm-none-eabi-7-2018-q2-update-linux/gcc-arm-none-eabi-7-2018-q2-update/bin/../lib/gcc/arm-none-eabi/7.3.1/../../../../arm-none-eabi/lib/thumb/v7e-m/fpv4-sp/hard/libc_nano.a(lib_a-sbrkr.o)
 .debug_frame   0x00000000000005f4       0xcc /home/abhishek/udoo/udoo-neo_custom_linux/m4/gcc-arm-none-eabi-7-2018-q2-update-linux/gcc-arm-none-eabi-7-2018-q2-update/bin/../lib/gcc/arm-none-eabi/7.3.1/../../../../arm-none-eabi/lib/thumb/v7e-m/fpv4-sp/hard/libc_nano.a(lib_a-signal.o)
 .debug_frame   0x00000000000006c0       0x3c /home/abhishek/udoo/udoo-neo_custom_linux/m4/gcc-arm-none-eabi-7-2018-q2-update-linux/gcc-arm-none-eabi-7-2018-q2-update/bin/../lib/gcc/arm-none-eabi/7.3.1/../../../../arm-none-eabi/lib/thumb/v7e-m/fpv4-sp/hard/libc_nano.a(lib_a-signalr.o)
 .debug_frame   0x00000000000006fc       0x88 /home/abhishek/udoo/udoo-neo_custom_linux/m4/gcc-arm-none-eabi-7-2018-q2-update-linux/gcc-arm-none-eabi-7-2018-q2-update/bin/../lib/gcc/arm-none-eabi/7.3.1/../../../../arm-none-eabi/lib/thumb/v7e-m/fpv4-sp/hard/libc_nano.a(lib_a-stdio.o)
 .debug_frame   0x0000000000000784       0x2c /home/abhishek/udoo/udoo-neo_custom_linux/m4/gcc-arm-none-eabi-7-2018-q2-update-linux/gcc-arm-none-eabi-7-2018-q2-update/bin/../lib/gcc/arm-none-eabi/7.3.1/../../../../arm-none-eabi/lib/thumb/v7e-m/fpv4-sp/hard/libc_nano.a(lib_a-writer.o)
 .debug_frame   0x00000000000007b0       0x2c /home/abhishek/udoo/udoo-neo_custom_linux/m4/gcc-arm-none-eabi-7-2018-q2-update-linux/gcc-arm-none-eabi-7-2018-q2-update/bin/../lib/gcc/arm-none-eabi/7.3.1/../../../../arm-none-eabi/lib/thumb/v7e-m/fpv4-sp/hard/libc_nano.a(lib_a-closer.o)
 .debug_frame   0x00000000000007dc       0x2c /home/abhishek/udoo/udoo-neo_custom_linux/m4/gcc-arm-none-eabi-7-2018-q2-update-linux/gcc-arm-none-eabi-7-2018-q2-update/bin/../lib/gcc/arm-none-eabi/7.3.1/../../../../arm-none-eabi/lib/thumb/v7e-m/fpv4-sp/hard/libc_nano.a(lib_a-fstatr.o)
 .debug_frame   0x0000000000000808       0x2c /home/abhishek/udoo/udoo-neo_custom_linux/m4/gcc-arm-none-eabi-7-2018-q2-update-linux/gcc-arm-none-eabi-7-2018-q2-update/bin/../lib/gcc/arm-none-eabi/7.3.1/../../../../arm-none-eabi/lib/thumb/v7e-m/fpv4-sp/hard/libc_nano.a(lib_a-isattyr.o)
 .debug_frame   0x0000000000000834       0x2c /home/abhishek/udoo/udoo-neo_custom_linux/m4/gcc-arm-none-eabi-7-2018-q2-update-linux/gcc-arm-none-eabi-7-2018-q2-update/bin/../lib/gcc/arm-none-eabi/7.3.1/../../../../arm-none-eabi/lib/thumb/v7e-m/fpv4-sp/hard/libc_nano.a(lib_a-lseekr.o)
 .debug_frame   0x0000000000000860       0x30 /home/abhishek/udoo/udoo-neo_custom_linux/m4/gcc-arm-none-eabi-7-2018-q2-update-linux/gcc-arm-none-eabi-7-2018-q2-update/bin/../lib/gcc/arm-none-eabi/7.3.1/../../../../arm-none-eabi/lib/thumb/v7e-m/fpv4-sp/hard/libc_nano.a(lib_a-mlock.o)
 .debug_frame   0x0000000000000890       0x2c /home/abhishek/udoo/udoo-neo_custom_linux/m4/gcc-arm-none-eabi-7-2018-q2-update-linux/gcc-arm-none-eabi-7-2018-q2-update/bin/../lib/gcc/arm-none-eabi/7.3.1/../../../../arm-none-eabi/lib/thumb/v7e-m/fpv4-sp/hard/libc_nano.a(lib_a-readr.o)
 .debug_frame   0x00000000000008bc       0x5c /home/abhishek/udoo/udoo-neo_custom_linux/m4/gcc-arm-none-eabi-7-2018-q2-update-linux/gcc-arm-none-eabi-7-2018-q2-update/bin/../lib/gcc/arm-none-eabi/7.3.1/../../../../arm-none-eabi/lib/thumb/v7e-m/fpv4-sp/hard/libc_nano.a(lib_a-reent.o)
 .debug_frame   0x0000000000000918       0x20 /home/abhishek/udoo/udoo-neo_custom_linux/m4/gcc-arm-none-eabi-7-2018-q2-update-linux/gcc-arm-none-eabi-7-2018-q2-update/bin/../lib/gcc/arm-none-eabi/7.3.1/../../../../arm-none-eabi/lib/thumb/v7e-m/fpv4-sp/hard/libnosys.a(close.o)
 .debug_frame   0x0000000000000938       0x20 /home/abhishek/udoo/udoo-neo_custom_linux/m4/gcc-arm-none-eabi-7-2018-q2-update-linux/gcc-arm-none-eabi-7-2018-q2-update/bin/../lib/gcc/arm-none-eabi/7.3.1/../../../../arm-none-eabi/lib/thumb/v7e-m/fpv4-sp/hard/libnosys.a(fstat.o)
 .debug_frame   0x0000000000000958       0x20 /home/abhishek/udoo/udoo-neo_custom_linux/m4/gcc-arm-none-eabi-7-2018-q2-update-linux/gcc-arm-none-eabi-7-2018-q2-update/bin/../lib/gcc/arm-none-eabi/7.3.1/../../../../arm-none-eabi/lib/thumb/v7e-m/fpv4-sp/hard/libnosys.a(getpid.o)
 .debug_frame   0x0000000000000978       0x20 /home/abhishek/udoo/udoo-neo_custom_linux/m4/gcc-arm-none-eabi-7-2018-q2-update-linux/gcc-arm-none-eabi-7-2018-q2-update/bin/../lib/gcc/arm-none-eabi/7.3.1/../../../../arm-none-eabi/lib/thumb/v7e-m/fpv4-sp/hard/libnosys.a(isatty.o)
 .debug_frame   0x0000000000000998       0x20 /home/abhishek/udoo/udoo-neo_custom_linux/m4/gcc-arm-none-eabi-7-2018-q2-update-linux/gcc-arm-none-eabi-7-2018-q2-update/bin/../lib/gcc/arm-none-eabi/7.3.1/../../../../arm-none-eabi/lib/thumb/v7e-m/fpv4-sp/hard/libnosys.a(kill.o)
 .debug_frame   0x00000000000009b8       0x20 /home/abhishek/udoo/udoo-neo_custom_linux/m4/gcc-arm-none-eabi-7-2018-q2-update-linux/gcc-arm-none-eabi-7-2018-q2-update/bin/../lib/gcc/arm-none-eabi/7.3.1/../../../../arm-none-eabi/lib/thumb/v7e-m/fpv4-sp/hard/libnosys.a(lseek.o)
 .debug_frame   0x00000000000009d8       0x20 /home/abhishek/udoo/udoo-neo_custom_linux/m4/gcc-arm-none-eabi-7-2018-q2-update-linux/gcc-arm-none-eabi-7-2018-q2-update/bin/../lib/gcc/arm-none-eabi/7.3.1/../../../../arm-none-eabi/lib/thumb/v7e-m/fpv4-sp/hard/libnosys.a(sbrk.o)
 .debug_frame   0x00000000000009f8       0x20 /home/abhishek/udoo/udoo-neo_custom_linux/m4/gcc-arm-none-eabi-7-2018-q2-update-linux/gcc-arm-none-eabi-7-2018-q2-update/bin/../lib/gcc/arm-none-eabi/7.3.1/../../../../arm-none-eabi/lib/thumb/v7e-m/fpv4-sp/hard/libnosys.a(_exit.o)

.stab           0x0000000000000000       0x9c
 .stab          0x0000000000000000       0x24 /home/abhishek/udoo/udoo-neo_custom_linux/m4/gcc-arm-none-eabi-7-2018-q2-update-linux/gcc-arm-none-eabi-7-2018-q2-update/bin/../lib/gcc/arm-none-eabi/7.3.1/../../../../arm-none-eabi/lib/thumb/v7e-m/fpv4-sp/hard/libnosys.a(close.o)
 .stab          0x0000000000000024       0x18 /home/abhishek/udoo/udoo-neo_custom_linux/m4/gcc-arm-none-eabi-7-2018-q2-update-linux/gcc-arm-none-eabi-7-2018-q2-update/bin/../lib/gcc/arm-none-eabi/7.3.1/../../../../arm-none-eabi/lib/thumb/v7e-m/fpv4-sp/hard/libnosys.a(fstat.o)
                                         0x24 (size before relaxing)
 .stab          0x000000000000003c       0x18 /home/abhishek/udoo/udoo-neo_custom_linux/m4/gcc-arm-none-eabi-7-2018-q2-update-linux/gcc-arm-none-eabi-7-2018-q2-update/bin/../lib/gcc/arm-none-eabi/7.3.1/../../../../arm-none-eabi/lib/thumb/v7e-m/fpv4-sp/hard/libnosys.a(getpid.o)
                                         0x24 (size before relaxing)
 .stab          0x0000000000000054       0x18 /home/abhishek/udoo/udoo-neo_custom_linux/m4/gcc-arm-none-eabi-7-2018-q2-update-linux/gcc-arm-none-eabi-7-2018-q2-update/bin/../lib/gcc/arm-none-eabi/7.3.1/../../../../arm-none-eabi/lib/thumb/v7e-m/fpv4-sp/hard/libnosys.a(isatty.o)
                                         0x24 (size before relaxing)
 .stab          0x000000000000006c       0x18 /home/abhishek/udoo/udoo-neo_custom_linux/m4/gcc-arm-none-eabi-7-2018-q2-update-linux/gcc-arm-none-eabi-7-2018-q2-update/bin/../lib/gcc/arm-none-eabi/7.3.1/../../../../arm-none-eabi/lib/thumb/v7e-m/fpv4-sp/hard/libnosys.a(kill.o)
                                         0x24 (size before relaxing)
 .stab          0x0000000000000084       0x18 /home/abhishek/udoo/udoo-neo_custom_linux/m4/gcc-arm-none-eabi-7-2018-q2-update-linux/gcc-arm-none-eabi-7-2018-q2-update/bin/../lib/gcc/arm-none-eabi/7.3.1/../../../../arm-none-eabi/lib/thumb/v7e-m/fpv4-sp/hard/libnosys.a(lseek.o)
                                         0x24 (size before relaxing)

.stabstr        0x0000000000000000      0x14f
 .stabstr       0x0000000000000000      0x14f /home/abhishek/udoo/udoo-neo_custom_linux/m4/gcc-arm-none-eabi-7-2018-q2-update-linux/gcc-arm-none-eabi-7-2018-q2-update/bin/../lib/gcc/arm-none-eabi/7.3.1/../../../../arm-none-eabi/lib/thumb/v7e-m/fpv4-sp/hard/libnosys.a(close.o)
